;--------------------------------------------------------
; File Created by SDCC : free open source ANSI-C Compiler
; Version 3.5.0 #9253 (Jun 20 2015) (MINGW32)
; This file was generated Tue Oct 29 15:21:37 2019
;--------------------------------------------------------
; PIC port for the 14-bit core
;--------------------------------------------------------
	.file	"ADC.c"
	list	p=16f877a
	radix dec
	include "p16f877a.inc"
;--------------------------------------------------------
; external declarations
;--------------------------------------------------------
	extern	_OS_Init
	extern	_OS_Start
	extern	_OS_Update
	extern	_STATUSbits
	extern	_PORTAbits
	extern	_PORTBbits
	extern	_PORTCbits
	extern	_PORTDbits
	extern	_PORTEbits
	extern	_INTCONbits
	extern	_PIR1bits
	extern	_PIR2bits
	extern	_T1CONbits
	extern	_T2CONbits
	extern	_SSPCONbits
	extern	_CCP1CONbits
	extern	_RCSTAbits
	extern	_CCP2CONbits
	extern	_ADCON0bits
	extern	_OPTION_REGbits
	extern	_TRISAbits
	extern	_TRISBbits
	extern	_TRISCbits
	extern	_TRISDbits
	extern	_TRISEbits
	extern	_PIE1bits
	extern	_PIE2bits
	extern	_PCONbits
	extern	_SSPCON2bits
	extern	_SSPSTATbits
	extern	_TXSTAbits
	extern	_CMCONbits
	extern	_CVRCONbits
	extern	_ADCON1bits
	extern	_EECON1bits
	extern	_INDF
	extern	_TMR0
	extern	_PCL
	extern	_STATUS
	extern	_FSR
	extern	_PORTA
	extern	_PORTB
	extern	_PORTC
	extern	_PORTD
	extern	_PORTE
	extern	_PCLATH
	extern	_INTCON
	extern	_PIR1
	extern	_PIR2
	extern	_TMR1
	extern	_TMR1L
	extern	_TMR1H
	extern	_T1CON
	extern	_TMR2
	extern	_T2CON
	extern	_SSPBUF
	extern	_SSPCON
	extern	_CCPR1
	extern	_CCPR1L
	extern	_CCPR1H
	extern	_CCP1CON
	extern	_RCSTA
	extern	_TXREG
	extern	_RCREG
	extern	_CCPR2
	extern	_CCPR2L
	extern	_CCPR2H
	extern	_CCP2CON
	extern	_ADRESH
	extern	_ADCON0
	extern	_OPTION_REG
	extern	_TRISA
	extern	_TRISB
	extern	_TRISC
	extern	_TRISD
	extern	_TRISE
	extern	_PIE1
	extern	_PIE2
	extern	_PCON
	extern	_SSPCON2
	extern	_PR2
	extern	_SSPADD
	extern	_SSPSTAT
	extern	_TXSTA
	extern	_SPBRG
	extern	_CMCON
	extern	_CVRCON
	extern	_ADRESL
	extern	_ADCON1
	extern	_EEDATA
	extern	_EEADR
	extern	_EEDATH
	extern	_EEADRH
	extern	_EECON1
	extern	_EECON2
	extern	__gptrput2

	extern PSAVE
	extern SSAVE
	extern WSAVE
	extern STK12
	extern STK11
	extern STK10
	extern STK09
	extern STK08
	extern STK07
	extern STK06
	extern STK05
	extern STK04
	extern STK03
	extern STK02
	extern STK01
	extern STK00
;--------------------------------------------------------
; global declarations
;--------------------------------------------------------
	global	_ADC_Get
	global	_ADC_Update
	global	_ADC_Init
	global	_ADC_result

;--------------------------------------------------------
; global definitions
;--------------------------------------------------------
;--------------------------------------------------------
; absolute symbol definitions
;--------------------------------------------------------
;--------------------------------------------------------
; compiler-defined variables
;--------------------------------------------------------
UDL_ADC_0	udata
r0x1006	res	1
r0x1007	res	1
r0x1008	res	1
r0x1009	res	1
r0x1005	res	1
r0x1004	res	1
r0x1003	res	1
_ADC_Update_current_Time_1_11	res	1
;--------------------------------------------------------
; initialized data
;--------------------------------------------------------

ID_ADC_0	idata
_ADC_result
	db	0x00, 0x00

;--------------------------------------------------------
; overlayable items in internal ram 
;--------------------------------------------------------
;	udata_ovr
;--------------------------------------------------------
; code
;--------------------------------------------------------
code_ADC	code
;***
;  pBlock Stats: dbName = C
;***
;entry:  _ADC_Get	;Function start
; 2 exit points
;has an exit
;functions called:
;   __gptrput2
;   __gptrput2
;7 compiler assigned registers:
;   r0x1003
;   STK00
;   r0x1004
;   STK01
;   r0x1005
;   STK02
;   STK03
;; Starting pCode block
;;; /home/sdcc-builder/build/sdcc-build/orig/sdcc/src/pic14/gen.c:2316:resultRemat *{*
;;; /home/sdcc-builder/build/sdcc-build/orig/sdcc/src/pic14/gen.c:2760:genLabel *{*
;; ***	genLabel  2763
;;; /home/sdcc-builder/build/sdcc-build/orig/sdcc/src/pic14/gen.c:2316:resultRemat *{*
;;; /home/sdcc-builder/build/sdcc-build/orig/sdcc/src/pic14/gen.c:2340:genFunction *{*
;; ***	genFunction  2342 curr label offset=8previous max_key=18 
_ADC_Get	;Function start
; 2 exit points
;;; /home/sdcc-builder/build/sdcc-build/orig/sdcc/src/pic14/gen.c:2316:resultRemat *{*
;;; /home/sdcc-builder/build/sdcc-build/orig/sdcc/src/pic14/gen.c:7358:genReceive *{*
;; ***	genReceive  7359
;;	694 register type nRegs=3
;;; /home/sdcc-builder/build/sdcc-build/orig/sdcc/src/pic14/gen.c:1907:assignResultValue *{*
;; ***	assignResultValue  1909
;; 	line = 1911 result -=-, size=0, left AOP_REG=r0x1050, size=3, right -=-, size=0
;; >>> /home/sdcc-builder/build/sdcc-build/orig/sdcc/src/pic14/gen.c:1393:movwf
;;	1109 rIdx = r0x1052 
	.line	29; "ADC.c"	void ADC_Get(tWord* digital){
	BANKSEL	r0x1003
	MOVWF	r0x1003
;; >>> /home/sdcc-builder/build/sdcc-build/orig/sdcc/src/pic14/gen.c:1423:get_returnvalue
;; ***	popRegFromIdx,1042  , rIdx=0x7f
	MOVF	STK00,W
;; >>> /home/sdcc-builder/build/sdcc-build/orig/sdcc/src/pic14/gen.c:1393:movwf
;;	1109 rIdx = r0x1051 
	MOVWF	r0x1004
;; >>> /home/sdcc-builder/build/sdcc-build/orig/sdcc/src/pic14/gen.c:1423:get_returnvalue
;; ***	popRegFromIdx,1042  , rIdx=0x7e
	MOVF	STK01,W
;; >>> /home/sdcc-builder/build/sdcc-build/orig/sdcc/src/pic14/gen.c:1393:movwf
;;	1109 rIdx = r0x1050 
	MOVWF	r0x1005
;;; /home/sdcc-builder/build/sdcc-build/orig/sdcc/src/pic14/gen.c:2316:resultRemat *{*
;;; /home/sdcc-builder/build/sdcc-build/orig/sdcc/src/pic14/gen.c:6686:genPointerSet *{*
;; ***	genPointerSet  6687
;;; /home/sdcc-builder/build/sdcc-build/orig/sdcc/src/pic14/gen.c:6618:genGenPointerSet *{*
;; ***	genGenPointerSet  6619
;; ***	aopForSym 315
;;	327 sym->rname = _ADC_result, size = 2
;;	694 register type nRegs=3
;; 	line = 6624 result AOP_REG=r0x1050, size=3, left AOP_DIR=_ADC_result, size=2, right -=-, size=0
;;; /home/sdcc-builder/build/sdcc-build/orig/sdcc/src/pic14/gen.c:1343:mov2w_op *{*
;; ***	mov2w  1381  offset=1
;; >>> /home/sdcc-builder/build/sdcc-build/orig/sdcc/src/pic14/gen.c:1386:mov2w
;;	1009
;;	1028  _ADC_result   offset=1
	.line	30; "ADC.c"	*digital  = ADC_result;
	BANKSEL	_ADC_result
	MOVF	(_ADC_result + 1),W
;; >>> /home/sdcc-builder/build/sdcc-build/orig/sdcc/src/pic14/gen.c:6658:genGenPointerSet
;; ***	popRegFromIdx,1042  , rIdx=0x7d
	MOVWF	STK02
;;; /home/sdcc-builder/build/sdcc-build/orig/sdcc/src/pic14/gen.c:1343:mov2w_op *{*
;; ***	mov2w  1381  offset=0
;; >>> /home/sdcc-builder/build/sdcc-build/orig/sdcc/src/pic14/gen.c:1386:mov2w
;;	1009
;;	1028  _ADC_result   offset=0
	MOVF	_ADC_result,W
;; >>> /home/sdcc-builder/build/sdcc-build/orig/sdcc/src/pic14/gen.c:6658:genGenPointerSet
;; ***	popRegFromIdx,1042  , rIdx=0x7c
	MOVWF	STK03
;; ***	mov2w  1381  offset=0
;; >>> /home/sdcc-builder/build/sdcc-build/orig/sdcc/src/pic14/gen.c:1386:mov2w
;;	1109 rIdx = r0x1050 
	BANKSEL	r0x1005
	MOVF	r0x1005,W
;; >>> /home/sdcc-builder/build/sdcc-build/orig/sdcc/src/pic14/gen.c:6665:genGenPointerSet
;; ***	popRegFromIdx,1042  , rIdx=0x7e
	MOVWF	STK01
;; ***	mov2w  1381  offset=1
;; >>> /home/sdcc-builder/build/sdcc-build/orig/sdcc/src/pic14/gen.c:1386:mov2w
;;	1109 rIdx = r0x1051 
	MOVF	r0x1004,W
;; >>> /home/sdcc-builder/build/sdcc-build/orig/sdcc/src/pic14/gen.c:6667:genGenPointerSet
;; ***	popRegFromIdx,1042  , rIdx=0x7f
	MOVWF	STK00
;; ***	mov2w  1381  offset=2
;; >>> /home/sdcc-builder/build/sdcc-build/orig/sdcc/src/pic14/gen.c:1386:mov2w
;;	1109 rIdx = r0x1052 
	MOVF	r0x1003,W
;; >>> /home/sdcc-builder/build/sdcc-build/orig/sdcc/src/pic14/gen.c:1433:call_libraryfunc
	PAGESEL	__gptrput2
;; >>> /home/sdcc-builder/build/sdcc-build/orig/sdcc/src/pic14/gen.c:1435:call_libraryfunc
	CALL	__gptrput2
;; >>> /home/sdcc-builder/build/sdcc-build/orig/sdcc/src/pic14/gen.c:1437:call_libraryfunc
	PAGESEL	$
;;; /home/sdcc-builder/build/sdcc-build/orig/sdcc/src/pic14/gen.c:2316:resultRemat *{*
;;; /home/sdcc-builder/build/sdcc-build/orig/sdcc/src/pic14/gen.c:2760:genLabel *{*
;; ***	genLabel  2763
;;; /home/sdcc-builder/build/sdcc-build/orig/sdcc/src/pic14/gen.c:2316:resultRemat *{*
;;; /home/sdcc-builder/build/sdcc-build/orig/sdcc/src/pic14/gen.c:2528:genEndFunction *{*
;; ***	genEndFunction  2530
	RETURN	
; exit point of _ADC_Get

;***
;  pBlock Stats: dbName = C
;***
;entry:  _ADC_Update	;Function start
; 2 exit points
;has an exit
;4 compiler assigned registers:
;   r0x1006
;   r0x1007
;   r0x1008
;   r0x1009
;; Starting pCode block
;;; /home/sdcc-builder/build/sdcc-build/orig/sdcc/src/pic14/gen.c:2316:resultRemat *{*
;;; /home/sdcc-builder/build/sdcc-build/orig/sdcc/src/pic14/gen.c:2760:genLabel *{*
;; ***	genLabel  2763
;;; /home/sdcc-builder/build/sdcc-build/orig/sdcc/src/pic14/gen.c:2316:resultRemat *{*
;;; /home/sdcc-builder/build/sdcc-build/orig/sdcc/src/pic14/gen.c:2340:genFunction *{*
;; ***	genFunction  2342 curr label offset=4previous max_key=0 
_ADC_Update	;Function start
; 2 exit points
;;; /home/sdcc-builder/build/sdcc-build/orig/sdcc/src/pic14/gen.c:2316:resultRemat *{*
;;; /home/sdcc-builder/build/sdcc-build/orig/sdcc/src/pic14/gen.c:7358:genReceive *{*
;; ***	genReceive  7359
;;	694 register type nRegs=1
;;; /home/sdcc-builder/build/sdcc-build/orig/sdcc/src/pic14/gen.c:1907:assignResultValue *{*
;; ***	assignResultValue  1909
;; 	line = 1911 result -=-, size=0, left AOP_REG=r0x104A, size=1, right -=-, size=0
;; >>> /home/sdcc-builder/build/sdcc-build/orig/sdcc/src/pic14/gen.c:1393:movwf
;;	1109 rIdx = r0x104A 
	.line	13; "ADC.c"	void ADC_Update(tByte channel){
	BANKSEL	r0x1006
	MOVWF	r0x1006
;;; /home/sdcc-builder/build/sdcc-build/orig/sdcc/src/pic14/gen.c:2316:resultRemat *{*
;; ***	genPlus  611
;;; /home/sdcc-builder/build/sdcc-build/orig/sdcc/src/pic14/genarith.c:612:genPlus *{*
;; ***	aopForSym 315
;;	327 sym->rname = _ADC_Update_current_Time_1_11, size = 1
;;	575
;; 	line = 618 result AOP_DIR=_ADC_Update_current_Time_1_11, size=1, left AOP_DIR=_ADC_Update_current_Time_1_11, size=1, right AOP_LIT=0x05, size=1
;;; /home/sdcc-builder/build/sdcc-build/orig/sdcc/src/pic14/genarith.c:142:genPlusIncr *{*
;; ***	genPlusIncr  144
;; 	result AOP_DIR, left AOP_DIR, right AOP_LIT
;; 	genPlusIncr  156
;;	adding lit to something. size 1
;;; /home/sdcc-builder/build/sdcc-build/orig/sdcc/src/pic14/genarith.c:269:genAddLit *{*
;; ***	genAddLit  270
;;; /home/sdcc-builder/build/sdcc-build/orig/sdcc/src/pic14/genarith.c:233:genAddLit2byte *{*
;; >>> /home/sdcc-builder/build/sdcc-build/orig/sdcc/src/pic14/genarith.c:245:genAddLit2byte
	.line	16; "ADC.c"	current_Time += OS_TICK;
	MOVLW	0x05
;; >>> /home/sdcc-builder/build/sdcc-build/orig/sdcc/src/pic14/genarith.c:246:genAddLit2byte
;;	1009
;;	1028  _ADC_Update_current_Time_1_11   offset=0
	BANKSEL	_ADC_Update_current_Time_1_11
	ADDWF	_ADC_Update_current_Time_1_11,F
;; ***	addSign  861
;;; /home/sdcc-builder/build/sdcc-build/orig/sdcc/src/pic14/genarith.c:862:addSign *{*
;;; /home/sdcc-builder/build/sdcc-build/orig/sdcc/src/pic14/gen.c:2316:resultRemat *{*
;;; /home/sdcc-builder/build/sdcc-build/orig/sdcc/src/pic14/gen.c:3583:genCmpLt *{*
;; ***	genCmpLt  3584
;; ***	aopForSym 315
;;	327 sym->rname = _ADC_Update_current_Time_1_11, size = 1
;;; /home/sdcc-builder/build/sdcc-build/orig/sdcc/src/pic14/gen.c:3294:genCmp *{*
;;unsigned compare: left < lit(0x5=5), size=1
;; >>> /home/sdcc-builder/build/sdcc-build/orig/sdcc/src/pic14/gen.c:3265:pic14_mov2w_regOrLit
	.line	17; "ADC.c"	if(current_Time < ADC_PRIODE){
	MOVLW	0x05
;; >>> /home/sdcc-builder/build/sdcc-build/orig/sdcc/src/pic14/gen.c:3432:genCmp
;;	1009
;;	1028  _ADC_Update_current_Time_1_11   offset=0
	.line	18; "ADC.c"	return;
	SUBWF	_ADC_Update_current_Time_1_11,W
	.line	20; "ADC.c"	current_Time = 0;
	BTFSS	STATUS,0
	GOTO	_00114_DS_
	CLRF	_ADC_Update_current_Time_1_11
	.line	21; "ADC.c"	SELECT_CHANNEL(channel);
	MOVLW	0x04
;; >>> /home/sdcc-builder/build/sdcc-build/orig/sdcc/src/pic14/gen.c:4191:genAnd
;;	1109 rIdx = r0x104A 
	BANKSEL	r0x1006
	ANDWF	r0x1006,W
;; >>> /home/sdcc-builder/build/sdcc-build/orig/sdcc/src/pic14/gen.c:4192:genAnd
;;	1109 rIdx = r0x104B 
	MOVWF	r0x1007
;;; /home/sdcc-builder/build/sdcc-build/orig/sdcc/src/pic14/gen.c:2316:resultRemat *{*
;;; /home/sdcc-builder/build/sdcc-build/orig/sdcc/src/pic14/gen.c:5418:genGenericShift *{*
;; ***	genGenericShift  5421
;;	694 register type nRegs=1
;;	694 register type nRegs=1
;;shiftRight_Left2ResultLit:5273: shCount=1, size=1, sign=0, same=0, offr=0
;; >>> /home/sdcc-builder/build/sdcc-build/orig/sdcc/src/pic14/gen.c:5283:shiftRight_Left2ResultLit
	BCF	STATUS,0
;; >>> /home/sdcc-builder/build/sdcc-build/orig/sdcc/src/pic14/gen.c:5297:shiftRight_Left2ResultLit
;;	1109 rIdx = r0x104B 
	RRF	r0x1007,W
;; >>> /home/sdcc-builder/build/sdcc-build/orig/sdcc/src/pic14/gen.c:5298:shiftRight_Left2ResultLit
;;	1109 rIdx = r0x104C 
	MOVWF	r0x1008
;; ***	addSign  861
;;; /home/sdcc-builder/build/sdcc-build/orig/sdcc/src/pic14/genarith.c:862:addSign *{*
;;shiftRight_Left2ResultLit:5273: shCount=1, size=1, sign=0, same=1, offr=0
;; >>> /home/sdcc-builder/build/sdcc-build/orig/sdcc/src/pic14/gen.c:5283:shiftRight_Left2ResultLit
	BCF	STATUS,0
;; >>> /home/sdcc-builder/build/sdcc-build/orig/sdcc/src/pic14/gen.c:5293:shiftRight_Left2ResultLit
;;	1109 rIdx = r0x104C 
	RRF	r0x1008,F
;; ***	addSign  861
;;; /home/sdcc-builder/build/sdcc-build/orig/sdcc/src/pic14/genarith.c:862:addSign *{*
;;; /home/sdcc-builder/build/sdcc-build/orig/sdcc/src/pic14/gen.c:2316:resultRemat *{*
;;; /home/sdcc-builder/build/sdcc-build/orig/sdcc/src/pic14/gen.c:6686:genPointerSet *{*
;; ***	genPointerSet  6687
;;; /home/sdcc-builder/build/sdcc-build/orig/sdcc/src/pic14/gen.c:6505:genNearPointerSet *{*
;; ***	genNearPointerSet  6506
;;	613
;;	aopForRemat 392
;;	418: rname _ADCON0bits, val 0, const = 0
;; ***	genNearPointerSet  6521
;;	833: aopGet AOP_PCODE type PO_IMMEDIATE
;;	_ADCON0bits
;; 	line = 6523 result AOP_PCODE=_ADCON0bits, size=2, left -=-, size=0, right AOP_REG=r0x104C, size=1
;;; /home/sdcc-builder/build/sdcc-build/orig/sdcc/src/pic14/gen.c:6249:genPackBits *{*
;; ***	genPackBits  6250
;; >>> /home/sdcc-builder/build/sdcc-build/orig/sdcc/src/pic14/gen.c:6354:genPackBits
;;	1109 rIdx = r0x104C 
	RRF	r0x1008,W
;; >>> /home/sdcc-builder/build/sdcc-build/orig/sdcc/src/pic14/gen.c:6355:genPackBits
	BTFSC	STATUS,0
	GOTO	_00001_DS_
;; >>> /home/sdcc-builder/build/sdcc-build/orig/sdcc/src/pic14/gen.c:6356:genPackBits
;;	833: aopGet AOP_PCODE type PO_IMMEDIATE
;;	_ADCON0bits
	BANKSEL	_ADCON0bits
	BCF	_ADCON0bits,5
;; >>> /home/sdcc-builder/build/sdcc-build/orig/sdcc/src/pic14/gen.c:6357:genPackBits
_00001_DS_
	BTFSS	STATUS,0
	GOTO	_00002_DS_
;; >>> /home/sdcc-builder/build/sdcc-build/orig/sdcc/src/pic14/gen.c:6358:genPackBits
;;	833: aopGet AOP_PCODE type PO_IMMEDIATE
;;	_ADCON0bits
	BANKSEL	_ADCON0bits
	BSF	_ADCON0bits,5
;;; /home/sdcc-builder/build/sdcc-build/orig/sdcc/src/pic14/gen.c:2316:resultRemat *{*
;;; /home/sdcc-builder/build/sdcc-build/orig/sdcc/src/pic14/gen.c:2316:resultRemat *{*
;;; /home/sdcc-builder/build/sdcc-build/orig/sdcc/src/pic14/gen.c:3919:genAnd *{*
;; ***	genAnd  3920
;;	694 register type nRegs=1
;;	694 register type nRegs=1
;; 	line = 3955 result AOP_REG=r0x104B, size=1, left AOP_REG=r0x104A, size=1, right AOP_LIT=0x02, size=1
;; >>> /home/sdcc-builder/build/sdcc-build/orig/sdcc/src/pic14/gen.c:4190:genAnd
_00002_DS_
	MOVLW	0x02
;; >>> /home/sdcc-builder/build/sdcc-build/orig/sdcc/src/pic14/gen.c:4191:genAnd
;;	1109 rIdx = r0x104A 
	BANKSEL	r0x1006
	ANDWF	r0x1006,W
;; >>> /home/sdcc-builder/build/sdcc-build/orig/sdcc/src/pic14/gen.c:4192:genAnd
;;	1109 rIdx = r0x104B 
	MOVWF	r0x1007
;;; /home/sdcc-builder/build/sdcc-build/orig/sdcc/src/pic14/gen.c:2316:resultRemat *{*
;;; /home/sdcc-builder/build/sdcc-build/orig/sdcc/src/pic14/gen.c:5418:genGenericShift *{*
;; ***	genGenericShift  5421
;;	694 register type nRegs=1
;;	694 register type nRegs=1
;;shiftRight_Left2ResultLit:5273: shCount=1, size=1, sign=0, same=0, offr=0
;; >>> /home/sdcc-builder/build/sdcc-build/orig/sdcc/src/pic14/gen.c:5283:shiftRight_Left2ResultLit
	BCF	STATUS,0
;; >>> /home/sdcc-builder/build/sdcc-build/orig/sdcc/src/pic14/gen.c:5297:shiftRight_Left2ResultLit
;;	1109 rIdx = r0x104B 
	RRF	r0x1007,W
;; >>> /home/sdcc-builder/build/sdcc-build/orig/sdcc/src/pic14/gen.c:5298:shiftRight_Left2ResultLit
;;	1109 rIdx = r0x104C 
	MOVWF	r0x1008
;; ***	addSign  861
;;; /home/sdcc-builder/build/sdcc-build/orig/sdcc/src/pic14/genarith.c:862:addSign *{*
;;; /home/sdcc-builder/build/sdcc-build/orig/sdcc/src/pic14/gen.c:2316:resultRemat *{*
;;; /home/sdcc-builder/build/sdcc-build/orig/sdcc/src/pic14/gen.c:6686:genPointerSet *{*
;; ***	genPointerSet  6687
;;; /home/sdcc-builder/build/sdcc-build/orig/sdcc/src/pic14/gen.c:6505:genNearPointerSet *{*
;; ***	genNearPointerSet  6506
;;	613
;;	aopForRemat 392
;;	418: rname _ADCON0bits, val 0, const = 0
;; ***	genNearPointerSet  6521
;;	833: aopGet AOP_PCODE type PO_IMMEDIATE
;;	_ADCON0bits
;; 	line = 6523 result AOP_PCODE=_ADCON0bits, size=2, left -=-, size=0, right AOP_REG=r0x104C, size=1
;;; /home/sdcc-builder/build/sdcc-build/orig/sdcc/src/pic14/gen.c:6249:genPackBits *{*
;; ***	genPackBits  6250
;; >>> /home/sdcc-builder/build/sdcc-build/orig/sdcc/src/pic14/gen.c:6354:genPackBits
;;	1109 rIdx = r0x104C 
	RRF	r0x1008,W
;; >>> /home/sdcc-builder/build/sdcc-build/orig/sdcc/src/pic14/gen.c:6355:genPackBits
	BTFSC	STATUS,0
	GOTO	_00003_DS_
;; >>> /home/sdcc-builder/build/sdcc-build/orig/sdcc/src/pic14/gen.c:6356:genPackBits
;;	833: aopGet AOP_PCODE type PO_IMMEDIATE
;;	_ADCON0bits
	BANKSEL	_ADCON0bits
	BCF	_ADCON0bits,4
;; >>> /home/sdcc-builder/build/sdcc-build/orig/sdcc/src/pic14/gen.c:6357:genPackBits
_00003_DS_
	BTFSS	STATUS,0
	GOTO	_00004_DS_
;; >>> /home/sdcc-builder/build/sdcc-build/orig/sdcc/src/pic14/gen.c:6358:genPackBits
;;	833: aopGet AOP_PCODE type PO_IMMEDIATE
;;	_ADCON0bits
	BANKSEL	_ADCON0bits
	BSF	_ADCON0bits,4
;;; /home/sdcc-builder/build/sdcc-build/orig/sdcc/src/pic14/gen.c:2316:resultRemat *{*
;;; /home/sdcc-builder/build/sdcc-build/orig/sdcc/src/pic14/gen.c:2316:resultRemat *{*
;;	694 register type nRegs=1
;;	694 register type nRegs=1
;; ***	mov2w  1381  offset=0
;; >>> /home/sdcc-builder/build/sdcc-build/orig/sdcc/src/pic14/gen.c:1386:mov2w
;;	1109 rIdx = r0x104A 
_00004_DS_
	BANKSEL	r0x1006
	MOVF	r0x1006,W
;; >>> /home/sdcc-builder/build/sdcc-build/orig/sdcc/src/pic14/gen.c:4911:genGetABit
	ANDLW	0x01
;; >>> /home/sdcc-builder/build/sdcc-build/orig/sdcc/src/pic14/gen.c:4927:genGetABit
;;	1109 rIdx = r0x104B 
	MOVWF	r0x1007
	MOVWF	r0x1006
;;; /home/sdcc-builder/build/sdcc-build/orig/sdcc/src/pic14/gen.c:2316:resultRemat *{*
;;; /home/sdcc-builder/build/sdcc-build/orig/sdcc/src/pic14/gen.c:6686:genPointerSet *{*
;; ***	genPointerSet  6687
;;; /home/sdcc-builder/build/sdcc-build/orig/sdcc/src/pic14/gen.c:6505:genNearPointerSet *{*
;; ***	genNearPointerSet  6506
;;	613
;;	aopForRemat 392
;;	418: rname _ADCON0bits, val 0, const = 0
;; ***	genNearPointerSet  6521
;;	694 register type nRegs=1
;;	833: aopGet AOP_PCODE type PO_IMMEDIATE
;;	_ADCON0bits
;; 	line = 6523 result AOP_PCODE=_ADCON0bits, size=2, left -=-, size=0, right AOP_REG=r0x104A, size=1
;;; /home/sdcc-builder/build/sdcc-build/orig/sdcc/src/pic14/gen.c:6249:genPackBits *{*
;; ***	genPackBits  6250
;; >>> /home/sdcc-builder/build/sdcc-build/orig/sdcc/src/pic14/gen.c:6354:genPackBits
;;	1109 rIdx = r0x104A 
	RRF	r0x1006,W
;; >>> /home/sdcc-builder/build/sdcc-build/orig/sdcc/src/pic14/gen.c:6355:genPackBits
	BTFSC	STATUS,0
	GOTO	_00005_DS_
;; >>> /home/sdcc-builder/build/sdcc-build/orig/sdcc/src/pic14/gen.c:6356:genPackBits
;;	833: aopGet AOP_PCODE type PO_IMMEDIATE
;;	_ADCON0bits
	BANKSEL	_ADCON0bits
	BCF	_ADCON0bits,3
;; >>> /home/sdcc-builder/build/sdcc-build/orig/sdcc/src/pic14/gen.c:6357:genPackBits
_00005_DS_
	BTFSS	STATUS,0
	GOTO	_00006_DS_
;; >>> /home/sdcc-builder/build/sdcc-build/orig/sdcc/src/pic14/gen.c:6358:genPackBits
;;	833: aopGet AOP_PCODE type PO_IMMEDIATE
;;	_ADCON0bits
	BANKSEL	_ADCON0bits
	BSF	_ADCON0bits,3
;;; /home/sdcc-builder/build/sdcc-build/orig/sdcc/src/pic14/gen.c:2316:resultRemat *{*
;;; /home/sdcc-builder/build/sdcc-build/orig/sdcc/src/pic14/gen.c:2316:resultRemat *{*
;;; /home/sdcc-builder/build/sdcc-build/orig/sdcc/src/pic14/gen.c:6686:genPointerSet *{*
;; ***	genPointerSet  6687
;;; /home/sdcc-builder/build/sdcc-build/orig/sdcc/src/pic14/gen.c:6505:genNearPointerSet *{*
;; ***	genNearPointerSet  6506
;;	613
;;	aopForRemat 392
;;	418: rname _ADCON0bits, val 0, const = 0
;; ***	genNearPointerSet  6521
;;	833: aopGet AOP_PCODE type PO_IMMEDIATE
;;	_ADCON0bits
;; 	line = 6523 result AOP_PCODE=_ADCON0bits, size=2, left -=-, size=0, right AOP_LIT=0x01, size=1
;;; /home/sdcc-builder/build/sdcc-build/orig/sdcc/src/pic14/gen.c:6249:genPackBits *{*
;; ***	genPackBits  6250
;;	833: aopGet AOP_PCODE type PO_IMMEDIATE
;;	_ADCON0bits
;; >>> /home/sdcc-builder/build/sdcc-build/orig/sdcc/src/pic14/gen.c:6275:genPackBits
_00006_DS_
	.line	22; "ADC.c"	ADON = AD_ON;
	BANKSEL	_ADCON0bits
	BSF	_ADCON0bits,0
;;; /home/sdcc-builder/build/sdcc-build/orig/sdcc/src/pic14/gen.c:2316:resultRemat *{*
;;; /home/sdcc-builder/build/sdcc-build/orig/sdcc/src/pic14/gen.c:2316:resultRemat *{*
;;; /home/sdcc-builder/build/sdcc-build/orig/sdcc/src/pic14/gen.c:6686:genPointerSet *{*
;; ***	genPointerSet  6687
;;; /home/sdcc-builder/build/sdcc-build/orig/sdcc/src/pic14/gen.c:6505:genNearPointerSet *{*
;; ***	genNearPointerSet  6506
;;	613
;;	aopForRemat 392
;;	418: rname _ADCON0bits, val 0, const = 0
;; ***	genNearPointerSet  6521
;;	833: aopGet AOP_PCODE type PO_IMMEDIATE
;;	_ADCON0bits
;; 	line = 6523 result AOP_PCODE=_ADCON0bits, size=2, left -=-, size=0, right AOP_LIT=0x01, size=1
;;; /home/sdcc-builder/build/sdcc-build/orig/sdcc/src/pic14/gen.c:6249:genPackBits *{*
;; ***	genPackBits  6250
;;	833: aopGet AOP_PCODE type PO_IMMEDIATE
;;	_ADCON0bits
;; >>> /home/sdcc-builder/build/sdcc-build/orig/sdcc/src/pic14/gen.c:6275:genPackBits
	.line	23; "ADC.c"	ADC_GO;
	BSF	_ADCON0bits,2
;;; /home/sdcc-builder/build/sdcc-build/orig/sdcc/src/pic14/gen.c:2316:resultRemat *{*
;;; /home/sdcc-builder/build/sdcc-build/orig/sdcc/src/pic14/gen.c:2760:genLabel *{*
;; ***	genLabel  2763
;;; /home/sdcc-builder/build/sdcc-build/orig/sdcc/src/pic14/gen.c:2316:resultRemat *{*
;;; /home/sdcc-builder/build/sdcc-build/orig/sdcc/src/pic14/gen.c:2316:resultRemat *{*
;;; /home/sdcc-builder/build/sdcc-build/orig/sdcc/src/pic14/gen.c:6162:genPointerGet *{*
;; ***	genPointerGet  6163
;;; /home/sdcc-builder/build/sdcc-build/orig/sdcc/src/pic14/gen.c:5944:genNearPointerGet *{*
;; ***	genNearPointerGet  5945
;;	613
;;	aopForRemat 392
;;	418: rname _ADCON0bits, val 0, const = 0
;; ***	genNearPointerGet  5961
;;	694 register type nRegs=1
;;; /home/sdcc-builder/build/sdcc-build/orig/sdcc/src/pic14/gen.c:5760:genUnpackBits *{*
;; ***	genUnpackBits  5761
;; >>> /home/sdcc-builder/build/sdcc-build/orig/sdcc/src/pic14/gen.c:5799:genUnpackBits
;;	1109 rIdx = r0x104A 
_00111_DS_
	.line	25; "ADC.c"	ADC_DONE;
	BANKSEL	r0x1006
	CLRF	r0x1006
;; >>> /home/sdcc-builder/build/sdcc-build/orig/sdcc/src/pic14/gen.c:5805:genUnpackBits
;;	833: aopGet AOP_PCODE type PO_IMMEDIATE
;;	_ADCON0bits
	BANKSEL	_ADCON0bits
	BTFSS	_ADCON0bits,2
	GOTO	_00007_DS_
;; >>> /home/sdcc-builder/build/sdcc-build/orig/sdcc/src/pic14/gen.c:5835:genUnpackBits
;;	1109 rIdx = r0x104A 
	BANKSEL	r0x1006
	INCF	r0x1006,F
;; ***	addSign  861
;;; /home/sdcc-builder/build/sdcc-build/orig/sdcc/src/pic14/genarith.c:862:addSign *{*
;;; /home/sdcc-builder/build/sdcc-build/orig/sdcc/src/pic14/gen.c:2316:resultRemat *{*
;;; /home/sdcc-builder/build/sdcc-build/orig/sdcc/src/pic14/gen.c:7120:genCast *{*
;; ***	genCast  7121
;;	694 register type nRegs=1
;;	694 register type nRegs=1
;; 	line = 7129 result AOP_REG=r0x104B, size=1, left -=-, size=0, right AOP_REG=r0x104A, size=1
;; ***	genCast  7253
;; >>> /home/sdcc-builder/build/sdcc-build/orig/sdcc/src/pic14/gen.c:7277:genCast
;;	1109 rIdx = r0x104A 
_00007_DS_
	BANKSEL	r0x1006
	MOVF	r0x1006,W
	MOVWF	r0x1007
	.line	26; "ADC.c"	ADON = AD_OFF;
	XORLW	0x01
	BTFSC	STATUS,2
	GOTO	_00111_DS_
	BANKSEL	_ADCON0bits
	BCF	_ADCON0bits,0
	.line	27; "ADC.c"	ADC_result = D_RESULAT_ADC;
	MOVF	_ADRESH,W
;; >>> /home/sdcc-builder/build/sdcc-build/orig/sdcc/src/pic14/gen.c:7299:genCast
;;	1109 rIdx = r0x104A 
	BANKSEL	r0x1009
	MOVWF	r0x1009
	MOVWF	r0x1006
;; ***	addSign  861
;;; /home/sdcc-builder/build/sdcc-build/orig/sdcc/src/pic14/genarith.c:862:addSign *{*
;; >>> /home/sdcc-builder/build/sdcc-build/orig/sdcc/src/pic14/genarith.c:881:addSign
;;	1109 rIdx = r0x104B 
	CLRF	r0x1007
;;; /home/sdcc-builder/build/sdcc-build/orig/sdcc/src/pic14/gen.c:2316:resultRemat *{*
;;; /home/sdcc-builder/build/sdcc-build/orig/sdcc/src/pic14/gen.c:5418:genGenericShift *{*
;; ***	genGenericShift  5421
;;	694 register type nRegs=2
;;	694 register type nRegs=2
;;; /home/sdcc-builder/build/sdcc-build/orig/sdcc/src/pic14/gen.c:5133:movLeft2Result *{*
;; ***	movLeft2Result  5134
;; >>> /home/sdcc-builder/build/sdcc-build/orig/sdcc/src/pic14/gen.c:5139:movLeft2Result
;;	1109 rIdx = r0x104A 
;;99	MOVF	r0x1006,W
;; >>> /home/sdcc-builder/build/sdcc-build/orig/sdcc/src/pic14/gen.c:5140:movLeft2Result
;;	1109 rIdx = r0x104D 
;; >>> /home/sdcc-builder/build/sdcc-build/orig/sdcc/src/pic14/gen.c:5236:shiftLeft_Left2ResultLit
;;	1109 rIdx = r0x104C 
	CLRF	r0x1008
;;; /home/sdcc-builder/build/sdcc-build/orig/sdcc/src/pic14/gen.c:2316:resultRemat *{*
;;; /home/sdcc-builder/build/sdcc-build/orig/sdcc/src/pic14/gen.c:7120:genCast *{*
;; ***	genCast  7121
;;	694 register type nRegs=2
;; 	line = 7129 result AOP_REG=r0x104A, size=2, left -=-, size=0, right AOP_REG=r0x104C, size=2
;; ***	genCast  7253
;; >>> /home/sdcc-builder/build/sdcc-build/orig/sdcc/src/pic14/gen.c:7277:genCast
;;	1109 rIdx = r0x104C 
	MOVLW	0x00
;; >>> /home/sdcc-builder/build/sdcc-build/orig/sdcc/src/pic14/gen.c:7278:genCast
;;	1109 rIdx = r0x104A 
	MOVWF	r0x1006
;; >>> /home/sdcc-builder/build/sdcc-build/orig/sdcc/src/pic14/gen.c:7277:genCast
;;	1109 rIdx = r0x104D 
	MOVF	r0x1009,W
;; >>> /home/sdcc-builder/build/sdcc-build/orig/sdcc/src/pic14/gen.c:7278:genCast
;;	1109 rIdx = r0x104B 
	MOVWF	r0x1007
;;; /home/sdcc-builder/build/sdcc-build/orig/sdcc/src/pic14/gen.c:2316:resultRemat *{*
;;; /home/sdcc-builder/build/sdcc-build/orig/sdcc/src/pic14/gen.c:7120:genCast *{*
;; ***	genCast  7121
;; ***	aopForSym 315
;;	327 sym->rname = _ADRESL, size = 1
;;	694 register type nRegs=2
;; 	line = 7129 result AOP_REG=r0x104C, size=2, left -=-, size=0, right AOP_DIR=_ADRESL, size=1
;; >>> /home/sdcc-builder/build/sdcc-build/orig/sdcc/src/pic14/gen.c:7298:genCast
;;	1009
;;	1024  _ADRESL   offset=0 - had to alloc by reg name
	BANKSEL	_ADRESL
	MOVF	_ADRESL,W
;; >>> /home/sdcc-builder/build/sdcc-build/orig/sdcc/src/pic14/gen.c:7299:genCast
;;	1109 rIdx = r0x104C 
	BANKSEL	r0x1008
	MOVWF	r0x1008
;; ***	addSign  861
;;; /home/sdcc-builder/build/sdcc-build/orig/sdcc/src/pic14/genarith.c:862:addSign *{*
;; >>> /home/sdcc-builder/build/sdcc-build/orig/sdcc/src/pic14/genarith.c:881:addSign
;;	1109 rIdx = r0x104D 
	CLRF	r0x1009
;;; /home/sdcc-builder/build/sdcc-build/orig/sdcc/src/pic14/gen.c:2316:resultRemat *{*
;;; /home/sdcc-builder/build/sdcc-build/orig/sdcc/src/pic14/gen.c:4220:genOr *{*
;; ***	genOr  4221
;;	694 register type nRegs=2
;;	694 register type nRegs=2
;; ***	aopForSym 315
;;	327 sym->rname = _ADC_result, size = 2
;; 	line = 4227 result AOP_DIR=_ADC_result, size=2, left AOP_REG=r0x104A, size=2, right AOP_REG=r0x104C, size=2
;; 	line = 4253 result AOP_DIR=_ADC_result, size=2, left AOP_REG=r0x104A, size=2, right AOP_REG=r0x104C, size=2
;; >>> /home/sdcc-builder/build/sdcc-build/orig/sdcc/src/pic14/gen.c:4479:genOr
;;	1109 rIdx = r0x104C 
	MOVF	r0x1008,W
;; >>> /home/sdcc-builder/build/sdcc-build/orig/sdcc/src/pic14/gen.c:4480:genOr
;;	1109 rIdx = r0x104A 
	IORWF	r0x1006,W
;; >>> /home/sdcc-builder/build/sdcc-build/orig/sdcc/src/pic14/gen.c:4481:genOr
;;	1009
;;	1028  _ADC_result   offset=0
	BANKSEL	_ADC_result
	MOVWF	_ADC_result
;; >>> /home/sdcc-builder/build/sdcc-build/orig/sdcc/src/pic14/gen.c:4479:genOr
;;	1109 rIdx = r0x104D 
	BANKSEL	r0x1007
	MOVF	r0x1007,W
	BANKSEL	_ADC_result
	MOVWF	(_ADC_result + 1)
;;; /home/sdcc-builder/build/sdcc-build/orig/sdcc/src/pic14/gen.c:2316:resultRemat *{*
;;; /home/sdcc-builder/build/sdcc-build/orig/sdcc/src/pic14/gen.c:2760:genLabel *{*
;; ***	genLabel  2763
;;; /home/sdcc-builder/build/sdcc-build/orig/sdcc/src/pic14/gen.c:2316:resultRemat *{*
;;; /home/sdcc-builder/build/sdcc-build/orig/sdcc/src/pic14/gen.c:2528:genEndFunction *{*
;; ***	genEndFunction  2530
_00114_DS_
	RETURN	
; exit point of _ADC_Update
;;; /home/sdcc-builder/build/sdcc-build/orig/sdcc/src/pic14/gen.c:7426:genpic14Code *{*

;***
;  pBlock Stats: dbName = C
;***
;entry:  _ADC_Init	;Function start
; 2 exit points
;has an exit
;; Starting pCode block
;;; /home/sdcc-builder/build/sdcc-build/orig/sdcc/src/pic14/gen.c:2316:resultRemat *{*
;;; /home/sdcc-builder/build/sdcc-build/orig/sdcc/src/pic14/gen.c:2760:genLabel *{*
;; ***	genLabel  2763
;;; /home/sdcc-builder/build/sdcc-build/orig/sdcc/src/pic14/gen.c:2316:resultRemat *{*
;;; /home/sdcc-builder/build/sdcc-build/orig/sdcc/src/pic14/gen.c:2340:genFunction *{*
;; ***	genFunction  2342 curr label offset=0previous max_key=0 
_ADC_Init	;Function start
; 2 exit points
;;; /home/sdcc-builder/build/sdcc-build/orig/sdcc/src/pic14/gen.c:2316:resultRemat *{*
;;; /home/sdcc-builder/build/sdcc-build/orig/sdcc/src/pic14/gen.c:2316:resultRemat *{*
;;; /home/sdcc-builder/build/sdcc-build/orig/sdcc/src/pic14/gen.c:6686:genPointerSet *{*
;; ***	genPointerSet  6687
;;; /home/sdcc-builder/build/sdcc-build/orig/sdcc/src/pic14/gen.c:6505:genNearPointerSet *{*
;; ***	genNearPointerSet  6506
;;	613
;;	aopForRemat 392
;;	418: rname _ADCON0bits, val 0, const = 0
;; ***	genNearPointerSet  6521
;;	833: aopGet AOP_PCODE type PO_IMMEDIATE
;;	_ADCON0bits
;; 	line = 6523 result AOP_PCODE=_ADCON0bits, size=2, left -=-, size=0, right AOP_LIT=0x00, size=1
;;; /home/sdcc-builder/build/sdcc-build/orig/sdcc/src/pic14/gen.c:6249:genPackBits *{*
;; ***	genPackBits  6250
;;	833: aopGet AOP_PCODE type PO_IMMEDIATE
;;	_ADCON0bits
;; >>> /home/sdcc-builder/build/sdcc-build/orig/sdcc/src/pic14/gen.c:6275:genPackBits
	.line	7; "ADC.c"	ADON = AD_OFF;
	BANKSEL	_ADCON0bits
	BCF	_ADCON0bits,0
;;; /home/sdcc-builder/build/sdcc-build/orig/sdcc/src/pic14/gen.c:2316:resultRemat *{*
;;; /home/sdcc-builder/build/sdcc-build/orig/sdcc/src/pic14/gen.c:2316:resultRemat *{*
;;; /home/sdcc-builder/build/sdcc-build/orig/sdcc/src/pic14/gen.c:6686:genPointerSet *{*
;; ***	genPointerSet  6687
;;; /home/sdcc-builder/build/sdcc-build/orig/sdcc/src/pic14/gen.c:6505:genNearPointerSet *{*
;; ***	genNearPointerSet  6506
;;	613
;;	aopForRemat 392
;;	418: rname _ADCON1bits, val 0, const = 0
;; ***	genNearPointerSet  6521
;;	833: aopGet AOP_PCODE type PO_IMMEDIATE
;;	_ADCON1bits
;; 	line = 6523 result AOP_PCODE=_ADCON1bits, size=2, left -=-, size=0, right AOP_LIT=0x00, size=1
;;; /home/sdcc-builder/build/sdcc-build/orig/sdcc/src/pic14/gen.c:6249:genPackBits *{*
;; ***	genPackBits  6250
;;	833: aopGet AOP_PCODE type PO_IMMEDIATE
;;	_ADCON1bits
;; >>> /home/sdcc-builder/build/sdcc-build/orig/sdcc/src/pic14/gen.c:6275:genPackBits
	.line	8; "ADC.c"	SELECT_FREQU(FREQUENCY_8);
	BANKSEL	_ADCON1bits
	BCF	_ADCON1bits,6
;;; /home/sdcc-builder/build/sdcc-build/orig/sdcc/src/pic14/gen.c:2316:resultRemat *{*
;;; /home/sdcc-builder/build/sdcc-build/orig/sdcc/src/pic14/gen.c:2316:resultRemat *{*
;;; /home/sdcc-builder/build/sdcc-build/orig/sdcc/src/pic14/gen.c:6686:genPointerSet *{*
;; ***	genPointerSet  6687
;;; /home/sdcc-builder/build/sdcc-build/orig/sdcc/src/pic14/gen.c:6505:genNearPointerSet *{*
;; ***	genNearPointerSet  6506
;;	613
;;	aopForRemat 392
;;	418: rname _ADCON0bits, val 0, const = 0
;; ***	genNearPointerSet  6521
;;	833: aopGet AOP_PCODE type PO_IMMEDIATE
;;	_ADCON0bits
;; 	line = 6523 result AOP_PCODE=_ADCON0bits, size=2, left -=-, size=0, right AOP_LIT=0x00, size=1
;;; /home/sdcc-builder/build/sdcc-build/orig/sdcc/src/pic14/gen.c:6249:genPackBits *{*
;; ***	genPackBits  6250
;;	833: aopGet AOP_PCODE type PO_IMMEDIATE
;;	_ADCON0bits
;; >>> /home/sdcc-builder/build/sdcc-build/orig/sdcc/src/pic14/gen.c:6275:genPackBits
	BANKSEL	_ADCON0bits
	BCF	_ADCON0bits,7
;;; /home/sdcc-builder/build/sdcc-build/orig/sdcc/src/pic14/gen.c:2316:resultRemat *{*
;;; /home/sdcc-builder/build/sdcc-build/orig/sdcc/src/pic14/gen.c:2316:resultRemat *{*
;;; /home/sdcc-builder/build/sdcc-build/orig/sdcc/src/pic14/gen.c:6686:genPointerSet *{*
;; ***	genPointerSet  6687
;;; /home/sdcc-builder/build/sdcc-build/orig/sdcc/src/pic14/gen.c:6505:genNearPointerSet *{*
;; ***	genNearPointerSet  6506
;;	613
;;	aopForRemat 392
;;	418: rname _ADCON0bits, val 0, const = 0
;; ***	genNearPointerSet  6521
;;	833: aopGet AOP_PCODE type PO_IMMEDIATE
;;	_ADCON0bits
;; 	line = 6523 result AOP_PCODE=_ADCON0bits, size=2, left -=-, size=0, right AOP_LIT=0x01, size=1
;;; /home/sdcc-builder/build/sdcc-build/orig/sdcc/src/pic14/gen.c:6249:genPackBits *{*
;; ***	genPackBits  6250
;;	833: aopGet AOP_PCODE type PO_IMMEDIATE
;;	_ADCON0bits
;; >>> /home/sdcc-builder/build/sdcc-build/orig/sdcc/src/pic14/gen.c:6275:genPackBits
	BSF	_ADCON0bits,6
;;; /home/sdcc-builder/build/sdcc-build/orig/sdcc/src/pic14/gen.c:2316:resultRemat *{*
;;; /home/sdcc-builder/build/sdcc-build/orig/sdcc/src/pic14/gen.c:2316:resultRemat *{*
;;; /home/sdcc-builder/build/sdcc-build/orig/sdcc/src/pic14/gen.c:6686:genPointerSet *{*
;; ***	genPointerSet  6687
;;; /home/sdcc-builder/build/sdcc-build/orig/sdcc/src/pic14/gen.c:6505:genNearPointerSet *{*
;; ***	genNearPointerSet  6506
;;	613
;;	aopForRemat 392
;;	418: rname _ADCON1bits, val 0, const = 0
;; ***	genNearPointerSet  6521
;;	833: aopGet AOP_PCODE type PO_IMMEDIATE
;;	_ADCON1bits
;; 	line = 6523 result AOP_PCODE=_ADCON1bits, size=2, left -=-, size=0, right AOP_LIT=0x01, size=1
;;; /home/sdcc-builder/build/sdcc-build/orig/sdcc/src/pic14/gen.c:6249:genPackBits *{*
;; ***	genPackBits  6250
;;	833: aopGet AOP_PCODE type PO_IMMEDIATE
;;	_ADCON1bits
;; >>> /home/sdcc-builder/build/sdcc-build/orig/sdcc/src/pic14/gen.c:6275:genPackBits
	.line	9; "ADC.c"	ADFM = RESULT_FORMAT_RIGHT_JUST;
	BANKSEL	_ADCON1bits
	BSF	_ADCON1bits,7
;;; /home/sdcc-builder/build/sdcc-build/orig/sdcc/src/pic14/gen.c:2316:resultRemat *{*
;;; /home/sdcc-builder/build/sdcc-build/orig/sdcc/src/pic14/gen.c:2316:resultRemat *{*
;;; /home/sdcc-builder/build/sdcc-build/orig/sdcc/src/pic14/gen.c:6686:genPointerSet *{*
;; ***	genPointerSet  6687
;;; /home/sdcc-builder/build/sdcc-build/orig/sdcc/src/pic14/gen.c:6505:genNearPointerSet *{*
;; ***	genNearPointerSet  6506
;;	613
;;	aopForRemat 392
;;	418: rname _ADCON1bits, val 0, const = 0
;; ***	genNearPointerSet  6521
;;	833: aopGet AOP_PCODE type PO_IMMEDIATE
;;	_ADCON1bits
;; 	line = 6523 result AOP_PCODE=_ADCON1bits, size=2, left -=-, size=0, right AOP_LIT=0x00, size=1
;;; /home/sdcc-builder/build/sdcc-build/orig/sdcc/src/pic14/gen.c:6249:genPackBits *{*
;; ***	genPackBits  6250
;;	833: aopGet AOP_PCODE type PO_IMMEDIATE
;;	_ADCON1bits
;; >>> /home/sdcc-builder/build/sdcc-build/orig/sdcc/src/pic14/gen.c:6275:genPackBits
	.line	10; "ADC.c"	PORT_CFG_CONTROL;
	BCF	_ADCON1bits,0
;;; /home/sdcc-builder/build/sdcc-build/orig/sdcc/src/pic14/gen.c:2316:resultRemat *{*
;;; /home/sdcc-builder/build/sdcc-build/orig/sdcc/src/pic14/gen.c:2316:resultRemat *{*
;;; /home/sdcc-builder/build/sdcc-build/orig/sdcc/src/pic14/gen.c:6686:genPointerSet *{*
;; ***	genPointerSet  6687
;;; /home/sdcc-builder/build/sdcc-build/orig/sdcc/src/pic14/gen.c:6505:genNearPointerSet *{*
;; ***	genNearPointerSet  6506
;;	613
;;	aopForRemat 392
;;	418: rname _ADCON1bits, val 0, const = 0
;; ***	genNearPointerSet  6521
;;	833: aopGet AOP_PCODE type PO_IMMEDIATE
;;	_ADCON1bits
;; 	line = 6523 result AOP_PCODE=_ADCON1bits, size=2, left -=-, size=0, right AOP_LIT=0x00, size=1
;;; /home/sdcc-builder/build/sdcc-build/orig/sdcc/src/pic14/gen.c:6249:genPackBits *{*
;; ***	genPackBits  6250
;;	833: aopGet AOP_PCODE type PO_IMMEDIATE
;;	_ADCON1bits
;; >>> /home/sdcc-builder/build/sdcc-build/orig/sdcc/src/pic14/gen.c:6275:genPackBits
	BCF	_ADCON1bits,1
;;; /home/sdcc-builder/build/sdcc-build/orig/sdcc/src/pic14/gen.c:2316:resultRemat *{*
;;; /home/sdcc-builder/build/sdcc-build/orig/sdcc/src/pic14/gen.c:2316:resultRemat *{*
;;; /home/sdcc-builder/build/sdcc-build/orig/sdcc/src/pic14/gen.c:6686:genPointerSet *{*
;; ***	genPointerSet  6687
;;; /home/sdcc-builder/build/sdcc-build/orig/sdcc/src/pic14/gen.c:6505:genNearPointerSet *{*
;; ***	genNearPointerSet  6506
;;	613
;;	aopForRemat 392
;;	418: rname _ADCON1bits, val 0, const = 0
;; ***	genNearPointerSet  6521
;;	833: aopGet AOP_PCODE type PO_IMMEDIATE
;;	_ADCON1bits
;; 	line = 6523 result AOP_PCODE=_ADCON1bits, size=2, left -=-, size=0, right AOP_LIT=0x00, size=1
;;; /home/sdcc-builder/build/sdcc-build/orig/sdcc/src/pic14/gen.c:6249:genPackBits *{*
;; ***	genPackBits  6250
;;	833: aopGet AOP_PCODE type PO_IMMEDIATE
;;	_ADCON1bits
;; >>> /home/sdcc-builder/build/sdcc-build/orig/sdcc/src/pic14/gen.c:6275:genPackBits
	BCF	_ADCON1bits,2
;;; /home/sdcc-builder/build/sdcc-build/orig/sdcc/src/pic14/gen.c:2316:resultRemat *{*
;;; /home/sdcc-builder/build/sdcc-build/orig/sdcc/src/pic14/gen.c:2316:resultRemat *{*
;;; /home/sdcc-builder/build/sdcc-build/orig/sdcc/src/pic14/gen.c:6686:genPointerSet *{*
;; ***	genPointerSet  6687
;;; /home/sdcc-builder/build/sdcc-build/orig/sdcc/src/pic14/gen.c:6505:genNearPointerSet *{*
;; ***	genNearPointerSet  6506
;;	613
;;	aopForRemat 392
;;	418: rname _ADCON1bits, val 0, const = 0
;; ***	genNearPointerSet  6521
;;	833: aopGet AOP_PCODE type PO_IMMEDIATE
;;	_ADCON1bits
;; 	line = 6523 result AOP_PCODE=_ADCON1bits, size=2, left -=-, size=0, right AOP_LIT=0x00, size=1
;;; /home/sdcc-builder/build/sdcc-build/orig/sdcc/src/pic14/gen.c:6249:genPackBits *{*
;; ***	genPackBits  6250
;;	833: aopGet AOP_PCODE type PO_IMMEDIATE
;;	_ADCON1bits
;; >>> /home/sdcc-builder/build/sdcc-build/orig/sdcc/src/pic14/gen.c:6275:genPackBits
	BCF	_ADCON1bits,3
;;; /home/sdcc-builder/build/sdcc-build/orig/sdcc/src/pic14/gen.c:2316:resultRemat *{*
;;; /home/sdcc-builder/build/sdcc-build/orig/sdcc/src/pic14/gen.c:2760:genLabel *{*
;; ***	genLabel  2763
;;; /home/sdcc-builder/build/sdcc-build/orig/sdcc/src/pic14/gen.c:2316:resultRemat *{*
;;; /home/sdcc-builder/build/sdcc-build/orig/sdcc/src/pic14/gen.c:2528:genEndFunction *{*
;; ***	genEndFunction  2530
	RETURN	
; exit point of _ADC_Init
;;; /home/sdcc-builder/build/sdcc-build/orig/sdcc/src/pic14/gen.c:7426:genpic14Code *{*


;	code size estimation:
;	  103+   32 =   135 instructions (  334 byte)

	end
