;--------------------------------------------------------
; File Created by SDCC : free open source ANSI-C Compiler
; Version 3.5.0 #9253 (Jun 20 2015) (MINGW32)
; This file was generated Tue Oct 29 15:21:38 2019
;--------------------------------------------------------
; PIC port for the 14-bit core
;--------------------------------------------------------
	.file	"DRL.c"
	list	p=16f877a
	radix dec
	include "p16f877a.inc"
;--------------------------------------------------------
; external declarations
;--------------------------------------------------------
	extern	_OS_Init
	extern	_OS_Start
	extern	_OS_Update
	extern	_ADC_Init
	extern	_ADC_Update
	extern	_ADC_Get
	extern	_FrontLight_Init
	extern	_FrontLight_Update
	extern	_FrontLight_Get_Status
	extern	_STATUSbits
	extern	_PORTAbits
	extern	_PORTBbits
	extern	_PORTCbits
	extern	_PORTDbits
	extern	_PORTEbits
	extern	_INTCONbits
	extern	_PIR1bits
	extern	_PIR2bits
	extern	_T1CONbits
	extern	_T2CONbits
	extern	_SSPCONbits
	extern	_CCP1CONbits
	extern	_RCSTAbits
	extern	_CCP2CONbits
	extern	_ADCON0bits
	extern	_OPTION_REGbits
	extern	_TRISAbits
	extern	_TRISBbits
	extern	_TRISCbits
	extern	_TRISDbits
	extern	_TRISEbits
	extern	_PIE1bits
	extern	_PIE2bits
	extern	_PCONbits
	extern	_SSPCON2bits
	extern	_SSPSTATbits
	extern	_TXSTAbits
	extern	_CMCONbits
	extern	_CVRCONbits
	extern	_ADCON1bits
	extern	_EECON1bits
	extern	_INDF
	extern	_TMR0
	extern	_PCL
	extern	_STATUS
	extern	_FSR
	extern	_PORTA
	extern	_PORTB
	extern	_PORTC
	extern	_PORTD
	extern	_PORTE
	extern	_PCLATH
	extern	_INTCON
	extern	_PIR1
	extern	_PIR2
	extern	_TMR1
	extern	_TMR1L
	extern	_TMR1H
	extern	_T1CON
	extern	_TMR2
	extern	_T2CON
	extern	_SSPBUF
	extern	_SSPCON
	extern	_CCPR1
	extern	_CCPR1L
	extern	_CCPR1H
	extern	_CCP1CON
	extern	_RCSTA
	extern	_TXREG
	extern	_RCREG
	extern	_CCPR2
	extern	_CCPR2L
	extern	_CCPR2H
	extern	_CCP2CON
	extern	_ADRESH
	extern	_ADCON0
	extern	_OPTION_REG
	extern	_TRISA
	extern	_TRISB
	extern	_TRISC
	extern	_TRISD
	extern	_TRISE
	extern	_PIE1
	extern	_PIE2
	extern	_PCON
	extern	_SSPCON2
	extern	_PR2
	extern	_SSPADD
	extern	_SSPSTAT
	extern	_TXSTA
	extern	_SPBRG
	extern	_CMCON
	extern	_CVRCON
	extern	_ADRESL
	extern	_ADCON1
	extern	_EEDATA
	extern	_EEADR
	extern	_EEDATH
	extern	_EEADRH
	extern	_EECON1
	extern	_EECON2

	extern PSAVE
	extern SSAVE
	extern WSAVE
	extern STK12
	extern STK11
	extern STK10
	extern STK09
	extern STK08
	extern STK07
	extern STK06
	extern STK05
	extern STK04
	extern STK03
	extern STK02
	extern STK01
	extern STK00
;--------------------------------------------------------
; global declarations
;--------------------------------------------------------
	global	_DRL_Update
	global	_DRL_Init

;--------------------------------------------------------
; global definitions
;--------------------------------------------------------
;--------------------------------------------------------
; absolute symbol definitions
;--------------------------------------------------------
;--------------------------------------------------------
; compiler-defined variables
;--------------------------------------------------------
UDL_DRL_0	udata
r0x1007	res	1
r0x1005	res	1
r0x1004	res	1
r0x1006	res	1
_DRL_Update_current_Time_1_15	res	1
_DRL_Update_sensor_Read_1_15	res	2
_DRL_Update_frontStatus_1_15	res	1
;--------------------------------------------------------
; initialized data
;--------------------------------------------------------
;--------------------------------------------------------
; overlayable items in internal ram 
;--------------------------------------------------------
;	udata_ovr
;--------------------------------------------------------
; code
;--------------------------------------------------------
code_DRL	code
;***
;  pBlock Stats: dbName = C
;***
;entry:  _DRL_Update	;Function start
; 2 exit points
;has an exit
;functions called:
;   _ADC_Update
;   _ADC_Get
;   _FrontLight_Get_Status
;   _ADC_Update
;   _ADC_Get
;   _FrontLight_Get_Status
;5 compiler assigned registers:
;   r0x1004
;   r0x1005
;   r0x1006
;   STK01
;   STK00
;; Starting pCode block
;;; /home/sdcc-builder/build/sdcc-build/orig/sdcc/src/pic14/gen.c:2316:resultRemat *{*
;;; /home/sdcc-builder/build/sdcc-build/orig/sdcc/src/pic14/gen.c:2760:genLabel *{*
;; ***	genLabel  2763
;;; /home/sdcc-builder/build/sdcc-build/orig/sdcc/src/pic14/gen.c:2316:resultRemat *{*
;;; /home/sdcc-builder/build/sdcc-build/orig/sdcc/src/pic14/gen.c:2340:genFunction *{*
;; ***	genFunction  2342 curr label offset=4previous max_key=0 
_DRL_Update	;Function start
; 2 exit points
;;; /home/sdcc-builder/build/sdcc-build/orig/sdcc/src/pic14/gen.c:2316:resultRemat *{*
;; ***	genPlus  611
;;; /home/sdcc-builder/build/sdcc-build/orig/sdcc/src/pic14/genarith.c:612:genPlus *{*
;; ***	aopForSym 315
;;	327 sym->rname = _DRL_Update_current_Time_1_15, size = 1
;;	575
;; 	line = 618 result AOP_DIR=_DRL_Update_current_Time_1_15, size=1, left AOP_DIR=_DRL_Update_current_Time_1_15, size=1, right AOP_LIT=0x05, size=1
;;; /home/sdcc-builder/build/sdcc-build/orig/sdcc/src/pic14/genarith.c:142:genPlusIncr *{*
;; ***	genPlusIncr  144
;; 	result AOP_DIR, left AOP_DIR, right AOP_LIT
;; 	genPlusIncr  156
;;	adding lit to something. size 1
;;; /home/sdcc-builder/build/sdcc-build/orig/sdcc/src/pic14/genarith.c:269:genAddLit *{*
;; ***	genAddLit  270
;;; /home/sdcc-builder/build/sdcc-build/orig/sdcc/src/pic14/genarith.c:233:genAddLit2byte *{*
;; >>> /home/sdcc-builder/build/sdcc-build/orig/sdcc/src/pic14/genarith.c:245:genAddLit2byte
	.line	21; "DRL.c"	current_Time += OS_TICK;
	MOVLW	0x05
;; >>> /home/sdcc-builder/build/sdcc-build/orig/sdcc/src/pic14/genarith.c:246:genAddLit2byte
;;	1009
;;	1028  _DRL_Update_current_Time_1_15   offset=0
	BANKSEL	_DRL_Update_current_Time_1_15
	ADDWF	_DRL_Update_current_Time_1_15,F
;; ***	addSign  861
;;; /home/sdcc-builder/build/sdcc-build/orig/sdcc/src/pic14/genarith.c:862:addSign *{*
;;; /home/sdcc-builder/build/sdcc-build/orig/sdcc/src/pic14/gen.c:2316:resultRemat *{*
;;; /home/sdcc-builder/build/sdcc-build/orig/sdcc/src/pic14/gen.c:3583:genCmpLt *{*
;; ***	genCmpLt  3584
;; ***	aopForSym 315
;;	327 sym->rname = _DRL_Update_current_Time_1_15, size = 1
;;; /home/sdcc-builder/build/sdcc-build/orig/sdcc/src/pic14/gen.c:3294:genCmp *{*
;;unsigned compare: left < lit(0x14=20), size=1
;; >>> /home/sdcc-builder/build/sdcc-build/orig/sdcc/src/pic14/gen.c:3265:pic14_mov2w_regOrLit
	.line	22; "DRL.c"	if(current_Time < DRL_PRIODE){
	MOVLW	0x14
;; >>> /home/sdcc-builder/build/sdcc-build/orig/sdcc/src/pic14/gen.c:3432:genCmp
;;	1009
;;	1028  _DRL_Update_current_Time_1_15   offset=0
	.line	23; "DRL.c"	return;
	SUBWF	_DRL_Update_current_Time_1_15,W
	.line	25; "DRL.c"	current_Time = 0;
	BTFSS	STATUS,0
	GOTO	_00122_DS_
	CLRF	_DRL_Update_current_Time_1_15
	.line	27; "DRL.c"	ADC_Update(CHANNEL_INPUT_2);
	MOVLW	0x02
;; >>> /home/sdcc-builder/build/sdcc-build/orig/sdcc/src/pic14/gen.c:2173:genCall
	PAGESEL	_ADC_Update
;; >>> /home/sdcc-builder/build/sdcc-build/orig/sdcc/src/pic14/gen.c:2175:genCall
	CALL	_ADC_Update
;; >>> /home/sdcc-builder/build/sdcc-build/orig/sdcc/src/pic14/gen.c:2181:genCall
	PAGESEL	$
;;; /home/sdcc-builder/build/sdcc-build/orig/sdcc/src/pic14/gen.c:1845:unsaveRegisters *{*
;; ***	unsaveRegisters  1847
;;; /home/sdcc-builder/build/sdcc-build/orig/sdcc/src/pic14/gen.c:2316:resultRemat *{*
;;; /home/sdcc-builder/build/sdcc-build/orig/sdcc/src/pic14/gen.c:2316:resultRemat *{*
;;; /home/sdcc-builder/build/sdcc-build/orig/sdcc/src/pic14/gen.c:7120:genCast *{*
;; ***	genCast  7121
;;	613
;;	aopForRemat 392
;;	418: rname _DRL_Update_sensor_Read_1_15, val 0, const = 0
;;	694 register type nRegs=3
;;	833: aopGet AOP_PCODE type PO_IMMEDIATE
;;	_DRL_Update_sensor_Read_1_15
;; 	line = 7129 result AOP_REG=r0x104A, size=3, left -=-, size=0, right AOP_PCODE=_DRL_Update_sensor_Read_1_15, size=2
;; ***	genCast  7174
;;; /home/sdcc-builder/build/sdcc-build/orig/sdcc/src/pic14/gen.c:1343:mov2w_op *{*
;; >>> /home/sdcc-builder/build/sdcc-build/orig/sdcc/src/pic14/gen.c:1361:mov2w_op
	.line	28; "DRL.c"	ADC_Get(&sensor_Read);
	MOVLW	high (_DRL_Update_sensor_Read_1_15 + 0)
;; >>> /home/sdcc-builder/build/sdcc-build/orig/sdcc/src/pic14/gen.c:1393:movwf
;;	1109 rIdx = r0x104B 
	BANKSEL	r0x1004
	MOVWF	r0x1004
;;; /home/sdcc-builder/build/sdcc-build/orig/sdcc/src/pic14/gen.c:1343:mov2w_op *{*
;; >>> /home/sdcc-builder/build/sdcc-build/orig/sdcc/src/pic14/gen.c:1361:mov2w_op
	MOVLW	(_DRL_Update_sensor_Read_1_15 + 0)
;; >>> /home/sdcc-builder/build/sdcc-build/orig/sdcc/src/pic14/gen.c:1393:movwf
;;	1109 rIdx = r0x104A 
	MOVWF	r0x1005
;; >>> /home/sdcc-builder/build/sdcc-build/orig/sdcc/src/pic14/gen.c:7230:genCast
;;	1109 rIdx = r0x104C 
	CLRF	r0x1006
;;; /home/sdcc-builder/build/sdcc-build/orig/sdcc/src/pic14/gen.c:2316:resultRemat *{*
;;; /home/sdcc-builder/build/sdcc-build/orig/sdcc/src/pic14/gen.c:2316:resultRemat *{*
;;; /home/sdcc-builder/build/sdcc-build/orig/sdcc/src/pic14/gen.c:2086:genCall *{*
;; ***	genCall  2088
;;; /home/sdcc-builder/build/sdcc-build/orig/sdcc/src/pic14/gen.c:1801:saveRegisters *{*
;; ***	saveRegisters  1803
;;	694 register type nRegs=3
;;	694 register type nRegs=3
;; 	2135 left AOP_REG
;;; /home/sdcc-builder/build/sdcc-build/orig/sdcc/src/pic14/gen.c:1343:mov2w_op *{*
;; ***	mov2w  1381  offset=0
;; >>> /home/sdcc-builder/build/sdcc-build/orig/sdcc/src/pic14/gen.c:1386:mov2w
;;	1109 rIdx = r0x104A 
	MOVF	r0x1005,W
;; 	2135 left AOP_REG
;; >>> /home/sdcc-builder/build/sdcc-build/orig/sdcc/src/pic14/gen.c:2143:genCall
;; ***	popRegFromIdx,1042  , rIdx=0x7e
	MOVWF	STK01
;;; /home/sdcc-builder/build/sdcc-build/orig/sdcc/src/pic14/gen.c:1343:mov2w_op *{*
;; ***	mov2w  1381  offset=1
;; >>> /home/sdcc-builder/build/sdcc-build/orig/sdcc/src/pic14/gen.c:1386:mov2w
;;	1109 rIdx = r0x104B 
	MOVF	r0x1004,W
;; 	2135 left AOP_REG
;; >>> /home/sdcc-builder/build/sdcc-build/orig/sdcc/src/pic14/gen.c:2143:genCall
;; ***	popRegFromIdx,1042  , rIdx=0x7f
	MOVWF	STK00
;;; /home/sdcc-builder/build/sdcc-build/orig/sdcc/src/pic14/gen.c:1343:mov2w_op *{*
;; ***	mov2w  1381  offset=2
;; >>> /home/sdcc-builder/build/sdcc-build/orig/sdcc/src/pic14/gen.c:1386:mov2w
;;	1109 rIdx = r0x104C 
	MOVLW	0x00
;; >>> /home/sdcc-builder/build/sdcc-build/orig/sdcc/src/pic14/gen.c:2173:genCall
	PAGESEL	_ADC_Get
;; >>> /home/sdcc-builder/build/sdcc-build/orig/sdcc/src/pic14/gen.c:2175:genCall
	CALL	_ADC_Get
;; >>> /home/sdcc-builder/build/sdcc-build/orig/sdcc/src/pic14/gen.c:2181:genCall
	PAGESEL	$
;;; /home/sdcc-builder/build/sdcc-build/orig/sdcc/src/pic14/gen.c:1845:unsaveRegisters *{*
;; ***	unsaveRegisters  1847
;;; /home/sdcc-builder/build/sdcc-build/orig/sdcc/src/pic14/gen.c:2316:resultRemat *{*
;;; /home/sdcc-builder/build/sdcc-build/orig/sdcc/src/pic14/gen.c:3583:genCmpLt *{*
;; ***	genCmpLt  3584
;; ***	aopForSym 315
;;	327 sym->rname = _DRL_Update_sensor_Read_1_15, size = 2
;;; /home/sdcc-builder/build/sdcc-build/orig/sdcc/src/pic14/gen.c:3294:genCmp *{*
;;unsigned compare: left < lit(0x400=1024), size=2
;; >>> /home/sdcc-builder/build/sdcc-build/orig/sdcc/src/pic14/gen.c:3265:pic14_mov2w_regOrLit
	.line	31; "DRL.c"	if((sensor_Read < 1024) && (sensor_Read > 511)){
	MOVLW	0x04
;; >>> /home/sdcc-builder/build/sdcc-build/orig/sdcc/src/pic14/gen.c:3432:genCmp
;;	1009
;;	1028  _DRL_Update_sensor_Read_1_15   offset=1
	BANKSEL	_DRL_Update_sensor_Read_1_15
	SUBWF	(_DRL_Update_sensor_Read_1_15 + 1),W
;; >>> /home/sdcc-builder/build/sdcc-build/orig/sdcc/src/pic14/gen.c:3477:genCmp
	BTFSS	STATUS,2
;; >>> /home/sdcc-builder/build/sdcc-build/orig/sdcc/src/pic14/gen.c:3478:genCmp
;; ***	popGetLabel  key=32, label offset 8
	GOTO	_00140_DS_
;; >>> /home/sdcc-builder/build/sdcc-build/orig/sdcc/src/pic14/gen.c:3265:pic14_mov2w_regOrLit
	MOVLW	0x00
;; >>> /home/sdcc-builder/build/sdcc-build/orig/sdcc/src/pic14/gen.c:3480:genCmp
;;	1009
;;	1028  _DRL_Update_sensor_Read_1_15   offset=0
	SUBWF	_DRL_Update_sensor_Read_1_15,W
;;; /home/sdcc-builder/build/sdcc-build/orig/sdcc/src/pic14/gen.c:3237:genSkipc *{*
;; >>> /home/sdcc-builder/build/sdcc-build/orig/sdcc/src/pic14/gen.c:3242:genSkipc
_00140_DS_
	BTFSC	STATUS,0
;; >>> /home/sdcc-builder/build/sdcc-build/orig/sdcc/src/pic14/gen.c:3246:genSkipc
;; ***	popGetLabel  key=11, label offset 8
	GOTO	_00119_DS_
;;genSkipc:3247: created from rifx:027A5DF4
;;; /home/sdcc-builder/build/sdcc-build/orig/sdcc/src/pic14/gen.c:2316:resultRemat *{*
;;; /home/sdcc-builder/build/sdcc-build/orig/sdcc/src/pic14/gen.c:2316:resultRemat *{*
;;; /home/sdcc-builder/build/sdcc-build/orig/sdcc/src/pic14/gen.c:3547:genCmpGt *{*
;; ***	genCmpGt  3548
;; ***	aopForSym 315
;;	327 sym->rname = _DRL_Update_sensor_Read_1_15, size = 2
;;; /home/sdcc-builder/build/sdcc-build/orig/sdcc/src/pic14/gen.c:3294:genCmp *{*
;;swapping arguments (AOP_TYPEs 1/3)
;;unsigned compare: left >= lit(0x200=512), size=2
;; >>> /home/sdcc-builder/build/sdcc-build/orig/sdcc/src/pic14/gen.c:3265:pic14_mov2w_regOrLit
	MOVLW	0x02
;; >>> /home/sdcc-builder/build/sdcc-build/orig/sdcc/src/pic14/gen.c:3432:genCmp
;;	1009
;;	1028  _DRL_Update_sensor_Read_1_15   offset=1
	BANKSEL	_DRL_Update_sensor_Read_1_15
	SUBWF	(_DRL_Update_sensor_Read_1_15 + 1),W
;; >>> /home/sdcc-builder/build/sdcc-build/orig/sdcc/src/pic14/gen.c:3477:genCmp
	BTFSS	STATUS,2
;; >>> /home/sdcc-builder/build/sdcc-build/orig/sdcc/src/pic14/gen.c:3478:genCmp
;; ***	popGetLabel  key=33, label offset 8
	GOTO	_00141_DS_
;; >>> /home/sdcc-builder/build/sdcc-build/orig/sdcc/src/pic14/gen.c:3265:pic14_mov2w_regOrLit
	MOVLW	0x00
;; >>> /home/sdcc-builder/build/sdcc-build/orig/sdcc/src/pic14/gen.c:3480:genCmp
;;	1009
;;	1028  _DRL_Update_sensor_Read_1_15   offset=0
	SUBWF	_DRL_Update_sensor_Read_1_15,W
;;; /home/sdcc-builder/build/sdcc-build/orig/sdcc/src/pic14/gen.c:3237:genSkipc *{*
;; >>> /home/sdcc-builder/build/sdcc-build/orig/sdcc/src/pic14/gen.c:3244:genSkipc
_00141_DS_
	BTFSS	STATUS,0
;; >>> /home/sdcc-builder/build/sdcc-build/orig/sdcc/src/pic14/gen.c:3246:genSkipc
;; ***	popGetLabel  key=11, label offset 8
	GOTO	_00119_DS_
;;genSkipc:3247: created from rifx:027A5DF4
;;; /home/sdcc-builder/build/sdcc-build/orig/sdcc/src/pic14/gen.c:2316:resultRemat *{*
;;; /home/sdcc-builder/build/sdcc-build/orig/sdcc/src/pic14/gen.c:2316:resultRemat *{*
;;; /home/sdcc-builder/build/sdcc-build/orig/sdcc/src/pic14/gen.c:7120:genCast *{*
;; ***	genCast  7121
;; ***	aopForSym 315
;;	327 sym->rname = _PORTB, size = 1
;;	694 register type nRegs=1
;; 	line = 7129 result AOP_REG=r0x104A, size=1, left -=-, size=0, right AOP_DIR=_PORTB, size=1
;; ***	genCast  7253
;; >>> /home/sdcc-builder/build/sdcc-build/orig/sdcc/src/pic14/gen.c:7277:genCast
;;	1009
;;	1028  _PORTB   offset=0
	.line	33; "DRL.c"	GPIO_WritePortPin(GPIO_PORTB_DATA, GPIO_PIN_4, DAY_LIGHT_ON);
	BANKSEL	_PORTB
	MOVF	_PORTB,W
;; >>> /home/sdcc-builder/build/sdcc-build/orig/sdcc/src/pic14/gen.c:7278:genCast
;;	1109 rIdx = r0x104A 
	BANKSEL	r0x1005
	MOVWF	r0x1005
;;; /home/sdcc-builder/build/sdcc-build/orig/sdcc/src/pic14/gen.c:2316:resultRemat *{*
;;; /home/sdcc-builder/build/sdcc-build/orig/sdcc/src/pic14/gen.c:3919:genAnd *{*
;; ***	genAnd  3920
;;	694 register type nRegs=1
;;	694 register type nRegs=1
;; 	line = 3955 result AOP_REG=r0x104A, size=1, left AOP_REG=r0x104A, size=1, right AOP_LIT=0xef, size=1
;; >>> /home/sdcc-builder/build/sdcc-build/orig/sdcc/src/pic14/gen.c:4122:genAnd
	BCF	r0x1005,4
;;; /home/sdcc-builder/build/sdcc-build/orig/sdcc/src/pic14/gen.c:2316:resultRemat *{*
;;; /home/sdcc-builder/build/sdcc-build/orig/sdcc/src/pic14/gen.c:4220:genOr *{*
;; ***	genOr  4221
;;	694 register type nRegs=1
;; ***	aopForSym 315
;;	327 sym->rname = _PORTB, size = 1
;; 	line = 4227 result AOP_DIR=_PORTB, size=1, left AOP_REG=r0x104A, size=1, right AOP_LIT=0x10, size=1
;; 	line = 4253 result AOP_DIR=_PORTB, size=1, left AOP_REG=r0x104A, size=1, right AOP_LIT=0x10, size=1
;; >>> /home/sdcc-builder/build/sdcc-build/orig/sdcc/src/pic14/gen.c:4470:genOr
	MOVLW	0x10
;; >>> /home/sdcc-builder/build/sdcc-build/orig/sdcc/src/pic14/gen.c:4471:genOr
;;	1109 rIdx = r0x104A 
	IORWF	r0x1005,W
;; >>> /home/sdcc-builder/build/sdcc-build/orig/sdcc/src/pic14/gen.c:4472:genOr
;;	1009
;;	1028  _PORTB   offset=0
	BANKSEL	_PORTB
	MOVWF	_PORTB
;;; /home/sdcc-builder/build/sdcc-build/orig/sdcc/src/pic14/gen.c:2316:resultRemat *{*
;;; /home/sdcc-builder/build/sdcc-build/orig/sdcc/src/pic14/gen.c:2778:genGoto *{*
;; >>> /home/sdcc-builder/build/sdcc-build/orig/sdcc/src/pic14/gen.c:2780:genGoto
;; ***	popGetLabel  key=14, label offset 8
	GOTO	_00122_DS_
;;; /home/sdcc-builder/build/sdcc-build/orig/sdcc/src/pic14/gen.c:2316:resultRemat *{*
;;; /home/sdcc-builder/build/sdcc-build/orig/sdcc/src/pic14/gen.c:2760:genLabel *{*
;; ***	genLabel  2763
;;; /home/sdcc-builder/build/sdcc-build/orig/sdcc/src/pic14/gen.c:2316:resultRemat *{*
;;; /home/sdcc-builder/build/sdcc-build/orig/sdcc/src/pic14/gen.c:3547:genCmpGt *{*
;; ***	genCmpGt  3548
;; ***	aopForSym 315
;;	327 sym->rname = _DRL_Update_sensor_Read_1_15, size = 2
;;; /home/sdcc-builder/build/sdcc-build/orig/sdcc/src/pic14/gen.c:3294:genCmp *{*
;;swapping arguments (AOP_TYPEs 1/3)
;;unsigned compare: left >= lit(0x200=512), size=2
;; >>> /home/sdcc-builder/build/sdcc-build/orig/sdcc/src/pic14/gen.c:3265:pic14_mov2w_regOrLit
_00119_DS_
	.line	37; "DRL.c"	else if((sensor_Read <= 511) && (sensor_Read >= 0)){
	MOVLW	0x02
;; >>> /home/sdcc-builder/build/sdcc-build/orig/sdcc/src/pic14/gen.c:3432:genCmp
;;	1009
;;	1028  _DRL_Update_sensor_Read_1_15   offset=1
	BANKSEL	_DRL_Update_sensor_Read_1_15
	SUBWF	(_DRL_Update_sensor_Read_1_15 + 1),W
;; >>> /home/sdcc-builder/build/sdcc-build/orig/sdcc/src/pic14/gen.c:3477:genCmp
	BTFSS	STATUS,2
;; >>> /home/sdcc-builder/build/sdcc-build/orig/sdcc/src/pic14/gen.c:3478:genCmp
;; ***	popGetLabel  key=34, label offset 8
	GOTO	_00142_DS_
;; >>> /home/sdcc-builder/build/sdcc-build/orig/sdcc/src/pic14/gen.c:3265:pic14_mov2w_regOrLit
	MOVLW	0x00
;; >>> /home/sdcc-builder/build/sdcc-build/orig/sdcc/src/pic14/gen.c:3480:genCmp
;;	1009
;;	1028  _DRL_Update_sensor_Read_1_15   offset=0
	SUBWF	_DRL_Update_sensor_Read_1_15,W
;;; /home/sdcc-builder/build/sdcc-build/orig/sdcc/src/pic14/gen.c:3237:genSkipc *{*
;; >>> /home/sdcc-builder/build/sdcc-build/orig/sdcc/src/pic14/gen.c:3242:genSkipc
_00142_DS_
	BTFSC	STATUS,0
;; >>> /home/sdcc-builder/build/sdcc-build/orig/sdcc/src/pic14/gen.c:3246:genSkipc
;; ***	popGetLabel  key=14, label offset 8
	GOTO	_00122_DS_
;;genSkipc:3247: created from rifx:027A5DF4
;;; /home/sdcc-builder/build/sdcc-build/orig/sdcc/src/pic14/gen.c:2316:resultRemat *{*
;;; /home/sdcc-builder/build/sdcc-build/orig/sdcc/src/pic14/gen.c:2316:resultRemat *{*
;;; /home/sdcc-builder/build/sdcc-build/orig/sdcc/src/pic14/gen.c:2316:resultRemat *{*
;;; /home/sdcc-builder/build/sdcc-build/orig/sdcc/src/pic14/gen.c:7120:genCast *{*
;; ***	genCast  7121
;;	613
;;	aopForRemat 392
;;	418: rname _DRL_Update_frontStatus_1_15, val 0, const = 0
;;	694 register type nRegs=3
;;	833: aopGet AOP_PCODE type PO_IMMEDIATE
;;	_DRL_Update_frontStatus_1_15
;; 	line = 7129 result AOP_REG=r0x104A, size=3, left -=-, size=0, right AOP_PCODE=_DRL_Update_frontStatus_1_15, size=2
;; ***	genCast  7174
;;; /home/sdcc-builder/build/sdcc-build/orig/sdcc/src/pic14/gen.c:1343:mov2w_op *{*
;; >>> /home/sdcc-builder/build/sdcc-build/orig/sdcc/src/pic14/gen.c:1361:mov2w_op
	.line	40; "DRL.c"	FrontLight_Get_Status(&frontStatus);
	MOVLW	high (_DRL_Update_frontStatus_1_15 + 0)
;; >>> /home/sdcc-builder/build/sdcc-build/orig/sdcc/src/pic14/gen.c:1393:movwf
;;	1109 rIdx = r0x104B 
	BANKSEL	r0x1004
	MOVWF	r0x1004
;;; /home/sdcc-builder/build/sdcc-build/orig/sdcc/src/pic14/gen.c:1343:mov2w_op *{*
;; >>> /home/sdcc-builder/build/sdcc-build/orig/sdcc/src/pic14/gen.c:1361:mov2w_op
	MOVLW	(_DRL_Update_frontStatus_1_15 + 0)
;; >>> /home/sdcc-builder/build/sdcc-build/orig/sdcc/src/pic14/gen.c:1393:movwf
;;	1109 rIdx = r0x104A 
	MOVWF	r0x1005
;; >>> /home/sdcc-builder/build/sdcc-build/orig/sdcc/src/pic14/gen.c:7230:genCast
;;	1109 rIdx = r0x104C 
	CLRF	r0x1006
;;; /home/sdcc-builder/build/sdcc-build/orig/sdcc/src/pic14/gen.c:2316:resultRemat *{*
;;; /home/sdcc-builder/build/sdcc-build/orig/sdcc/src/pic14/gen.c:2316:resultRemat *{*
;;; /home/sdcc-builder/build/sdcc-build/orig/sdcc/src/pic14/gen.c:2086:genCall *{*
;; ***	genCall  2088
;;; /home/sdcc-builder/build/sdcc-build/orig/sdcc/src/pic14/gen.c:1801:saveRegisters *{*
;; ***	saveRegisters  1803
;;	694 register type nRegs=3
;;	694 register type nRegs=3
;; 	2135 left AOP_REG
;;; /home/sdcc-builder/build/sdcc-build/orig/sdcc/src/pic14/gen.c:1343:mov2w_op *{*
;; ***	mov2w  1381  offset=0
;; >>> /home/sdcc-builder/build/sdcc-build/orig/sdcc/src/pic14/gen.c:1386:mov2w
;;	1109 rIdx = r0x104A 
	MOVF	r0x1005,W
;; 	2135 left AOP_REG
;; >>> /home/sdcc-builder/build/sdcc-build/orig/sdcc/src/pic14/gen.c:2143:genCall
;; ***	popRegFromIdx,1042  , rIdx=0x7e
	MOVWF	STK01
;;; /home/sdcc-builder/build/sdcc-build/orig/sdcc/src/pic14/gen.c:1343:mov2w_op *{*
;; ***	mov2w  1381  offset=1
;; >>> /home/sdcc-builder/build/sdcc-build/orig/sdcc/src/pic14/gen.c:1386:mov2w
;;	1109 rIdx = r0x104B 
	MOVF	r0x1004,W
;; 	2135 left AOP_REG
;; >>> /home/sdcc-builder/build/sdcc-build/orig/sdcc/src/pic14/gen.c:2143:genCall
;; ***	popRegFromIdx,1042  , rIdx=0x7f
	MOVWF	STK00
;;; /home/sdcc-builder/build/sdcc-build/orig/sdcc/src/pic14/gen.c:1343:mov2w_op *{*
;; ***	mov2w  1381  offset=2
;; >>> /home/sdcc-builder/build/sdcc-build/orig/sdcc/src/pic14/gen.c:1386:mov2w
;;	1109 rIdx = r0x104C 
	MOVLW	0x00
;; >>> /home/sdcc-builder/build/sdcc-build/orig/sdcc/src/pic14/gen.c:2173:genCall
	PAGESEL	_FrontLight_Get_Status
;; >>> /home/sdcc-builder/build/sdcc-build/orig/sdcc/src/pic14/gen.c:2175:genCall
	CALL	_FrontLight_Get_Status
;; >>> /home/sdcc-builder/build/sdcc-build/orig/sdcc/src/pic14/gen.c:2181:genCall
	PAGESEL	$
;;; /home/sdcc-builder/build/sdcc-build/orig/sdcc/src/pic14/gen.c:1845:unsaveRegisters *{*
;; ***	unsaveRegisters  1847
;;; /home/sdcc-builder/build/sdcc-build/orig/sdcc/src/pic14/gen.c:2316:resultRemat *{*
;;; /home/sdcc-builder/build/sdcc-build/orig/sdcc/src/pic14/gen.c:3619:genCmpEq *{*
;; ***	genCmpEq  3620
;; ifx is non-null
;; ***	aopForSym 315
;;	327 sym->rname = _DRL_Update_frontStatus_1_15, size = 1
;; 	line = 3631 result AOP_CRY=0x00, size=0, left AOP_DIR=_DRL_Update_frontStatus_1_15, size=1, right AOP_LIT=0x01, size=1
;; ***	mov2w  1381  offset=0
;; >>> /home/sdcc-builder/build/sdcc-build/orig/sdcc/src/pic14/gen.c:1386:mov2w
;;	1009
;;	1028  _DRL_Update_frontStatus_1_15   offset=0
	.line	41; "DRL.c"	if((frontStatus == low) || (frontStatus ==high)){
	BANKSEL	_DRL_Update_frontStatus_1_15
	MOVF	_DRL_Update_frontStatus_1_15,W
;; >>> /home/sdcc-builder/build/sdcc-build/orig/sdcc/src/pic14/gen.c:3685:genCmpEq
	XORLW	0x01
	BTFSC	STATUS,2
	GOTO	_00111_DS_
	MOVF	_DRL_Update_frontStatus_1_15,W
	XORLW	0x02
;; >>> /home/sdcc-builder/build/sdcc-build/orig/sdcc/src/pic14/gen.c:3687:genCmpEq
	BTFSS	STATUS,2
;; >>> /home/sdcc-builder/build/sdcc-build/orig/sdcc/src/pic14/gen.c:3690:genCmpEq
;; ***	popGetLabel  key=4, label offset 8
	GOTO	_00112_DS_
;;; /home/sdcc-builder/build/sdcc-build/orig/sdcc/src/pic14/gen.c:2316:resultRemat *{*
;;; /home/sdcc-builder/build/sdcc-build/orig/sdcc/src/pic14/gen.c:2316:resultRemat *{*
;;; /home/sdcc-builder/build/sdcc-build/orig/sdcc/src/pic14/gen.c:2760:genLabel *{*
;; ***	genLabel  2763
;;; /home/sdcc-builder/build/sdcc-build/orig/sdcc/src/pic14/gen.c:2316:resultRemat *{*
;;; /home/sdcc-builder/build/sdcc-build/orig/sdcc/src/pic14/gen.c:7120:genCast *{*
;; ***	genCast  7121
;; ***	aopForSym 315
;;	327 sym->rname = _PORTB, size = 1
;;	694 register type nRegs=1
;; 	line = 7129 result AOP_REG=r0x104A, size=1, left -=-, size=0, right AOP_DIR=_PORTB, size=1
;; ***	genCast  7253
;; >>> /home/sdcc-builder/build/sdcc-build/orig/sdcc/src/pic14/gen.c:7277:genCast
;;	1009
;;	1028  _PORTB   offset=0
_00111_DS_
	.line	42; "DRL.c"	GPIO_WritePortPin(GPIO_PORTB_DATA, GPIO_PIN_4, DAY_LIGHT_ON);
	BANKSEL	_PORTB
	MOVF	_PORTB,W
;; >>> /home/sdcc-builder/build/sdcc-build/orig/sdcc/src/pic14/gen.c:7278:genCast
;;	1109 rIdx = r0x104A 
	BANKSEL	r0x1005
	MOVWF	r0x1005
;;; /home/sdcc-builder/build/sdcc-build/orig/sdcc/src/pic14/gen.c:2316:resultRemat *{*
;;; /home/sdcc-builder/build/sdcc-build/orig/sdcc/src/pic14/gen.c:3919:genAnd *{*
;; ***	genAnd  3920
;;	694 register type nRegs=1
;;	694 register type nRegs=1
;; 	line = 3955 result AOP_REG=r0x104A, size=1, left AOP_REG=r0x104A, size=1, right AOP_LIT=0xef, size=1
;; >>> /home/sdcc-builder/build/sdcc-build/orig/sdcc/src/pic14/gen.c:4122:genAnd
	BCF	r0x1005,4
;;; /home/sdcc-builder/build/sdcc-build/orig/sdcc/src/pic14/gen.c:2316:resultRemat *{*
;;; /home/sdcc-builder/build/sdcc-build/orig/sdcc/src/pic14/gen.c:4220:genOr *{*
;; ***	genOr  4221
;;	694 register type nRegs=1
;; ***	aopForSym 315
;;	327 sym->rname = _PORTB, size = 1
;; 	line = 4227 result AOP_DIR=_PORTB, size=1, left AOP_REG=r0x104A, size=1, right AOP_LIT=0x10, size=1
;; 	line = 4253 result AOP_DIR=_PORTB, size=1, left AOP_REG=r0x104A, size=1, right AOP_LIT=0x10, size=1
;; >>> /home/sdcc-builder/build/sdcc-build/orig/sdcc/src/pic14/gen.c:4470:genOr
	MOVLW	0x10
;; >>> /home/sdcc-builder/build/sdcc-build/orig/sdcc/src/pic14/gen.c:4471:genOr
;;	1109 rIdx = r0x104A 
	IORWF	r0x1005,W
;; >>> /home/sdcc-builder/build/sdcc-build/orig/sdcc/src/pic14/gen.c:4472:genOr
;;	1009
;;	1028  _PORTB   offset=0
	BANKSEL	_PORTB
	MOVWF	_PORTB
;;; /home/sdcc-builder/build/sdcc-build/orig/sdcc/src/pic14/gen.c:2316:resultRemat *{*
;;; /home/sdcc-builder/build/sdcc-build/orig/sdcc/src/pic14/gen.c:2778:genGoto *{*
;; >>> /home/sdcc-builder/build/sdcc-build/orig/sdcc/src/pic14/gen.c:2780:genGoto
;; ***	popGetLabel  key=14, label offset 8
	GOTO	_00122_DS_
;;; /home/sdcc-builder/build/sdcc-build/orig/sdcc/src/pic14/gen.c:2316:resultRemat *{*
;;; /home/sdcc-builder/build/sdcc-build/orig/sdcc/src/pic14/gen.c:2760:genLabel *{*
;; ***	genLabel  2763
;;; /home/sdcc-builder/build/sdcc-build/orig/sdcc/src/pic14/gen.c:2316:resultRemat *{*
;;; /home/sdcc-builder/build/sdcc-build/orig/sdcc/src/pic14/gen.c:7120:genCast *{*
;; ***	genCast  7121
;; ***	aopForSym 315
;;	327 sym->rname = _PORTB, size = 1
;;	694 register type nRegs=1
;; 	line = 7129 result AOP_REG=r0x104A, size=1, left -=-, size=0, right AOP_DIR=_PORTB, size=1
;; ***	genCast  7253
;; >>> /home/sdcc-builder/build/sdcc-build/orig/sdcc/src/pic14/gen.c:7277:genCast
;;	1009
;;	1028  _PORTB   offset=0
_00112_DS_
	.line	45; "DRL.c"	GPIO_WritePortPin(GPIO_PORTB_DATA, GPIO_PIN_4, DAY_LIGHT_OFF);
	BANKSEL	_PORTB
	MOVF	_PORTB,W
;; >>> /home/sdcc-builder/build/sdcc-build/orig/sdcc/src/pic14/gen.c:7278:genCast
;;	1109 rIdx = r0x104A 
	BANKSEL	r0x1005
	MOVWF	r0x1005
;;; /home/sdcc-builder/build/sdcc-build/orig/sdcc/src/pic14/gen.c:2316:resultRemat *{*
;;; /home/sdcc-builder/build/sdcc-build/orig/sdcc/src/pic14/gen.c:3919:genAnd *{*
;; ***	genAnd  3920
;;	694 register type nRegs=1
;; ***	aopForSym 315
;;	327 sym->rname = _PORTB, size = 1
;; 	line = 3955 result AOP_DIR=_PORTB, size=1, left AOP_REG=r0x104A, size=1, right AOP_LIT=0xef, size=1
;; >>> /home/sdcc-builder/build/sdcc-build/orig/sdcc/src/pic14/gen.c:4190:genAnd
	MOVLW	0xef
;; >>> /home/sdcc-builder/build/sdcc-build/orig/sdcc/src/pic14/gen.c:4191:genAnd
;;	1109 rIdx = r0x104A 
	ANDWF	r0x1005,W
;; >>> /home/sdcc-builder/build/sdcc-build/orig/sdcc/src/pic14/gen.c:4192:genAnd
;;	1009
;;	1028  _PORTB   offset=0
	BANKSEL	_PORTB
	MOVWF	_PORTB
;;; /home/sdcc-builder/build/sdcc-build/orig/sdcc/src/pic14/gen.c:2316:resultRemat *{*
;;; /home/sdcc-builder/build/sdcc-build/orig/sdcc/src/pic14/gen.c:2760:genLabel *{*
;; ***	genLabel  2763
;;; /home/sdcc-builder/build/sdcc-build/orig/sdcc/src/pic14/gen.c:2316:resultRemat *{*
;;; /home/sdcc-builder/build/sdcc-build/orig/sdcc/src/pic14/gen.c:2528:genEndFunction *{*
;; ***	genEndFunction  2530
_00122_DS_
	RETURN	
; exit point of _DRL_Update
;;; /home/sdcc-builder/build/sdcc-build/orig/sdcc/src/pic14/gen.c:7426:genpic14Code *{*

;***
;  pBlock Stats: dbName = C
;***
;entry:  _DRL_Init	;Function start
; 2 exit points
;has an exit
;functions called:
;   _ADC_Init
;   _ADC_Init
;1 compiler assigned register :
;   r0x1007
;; Starting pCode block
;;; /home/sdcc-builder/build/sdcc-build/orig/sdcc/src/pic14/gen.c:2316:resultRemat *{*
;;; /home/sdcc-builder/build/sdcc-build/orig/sdcc/src/pic14/gen.c:2760:genLabel *{*
;; ***	genLabel  2763
;;; /home/sdcc-builder/build/sdcc-build/orig/sdcc/src/pic14/gen.c:2316:resultRemat *{*
;;; /home/sdcc-builder/build/sdcc-build/orig/sdcc/src/pic14/gen.c:2340:genFunction *{*
;; ***	genFunction  2342 curr label offset=0previous max_key=0 
_DRL_Init	;Function start
; 2 exit points
;;; /home/sdcc-builder/build/sdcc-build/orig/sdcc/src/pic14/gen.c:2316:resultRemat *{*
;;; /home/sdcc-builder/build/sdcc-build/orig/sdcc/src/pic14/gen.c:2086:genCall *{*
;; ***	genCall  2088
;;; /home/sdcc-builder/build/sdcc-build/orig/sdcc/src/pic14/gen.c:1801:saveRegisters *{*
;; ***	saveRegisters  1803
;; >>> /home/sdcc-builder/build/sdcc-build/orig/sdcc/src/pic14/gen.c:2173:genCall
	.line	10; "DRL.c"	ADC_Init();
	PAGESEL	_ADC_Init
;; >>> /home/sdcc-builder/build/sdcc-build/orig/sdcc/src/pic14/gen.c:2175:genCall
	CALL	_ADC_Init
;; >>> /home/sdcc-builder/build/sdcc-build/orig/sdcc/src/pic14/gen.c:2181:genCall
	PAGESEL	$
;;; /home/sdcc-builder/build/sdcc-build/orig/sdcc/src/pic14/gen.c:1845:unsaveRegisters *{*
;; ***	unsaveRegisters  1847
;;; /home/sdcc-builder/build/sdcc-build/orig/sdcc/src/pic14/gen.c:2316:resultRemat *{*
;;; /home/sdcc-builder/build/sdcc-build/orig/sdcc/src/pic14/gen.c:7120:genCast *{*
;; ***	genCast  7121
;; ***	aopForSym 315
;;	327 sym->rname = _TRISB, size = 1
;;	694 register type nRegs=1
;; 	line = 7129 result AOP_REG=r0x1048, size=1, left -=-, size=0, right AOP_DIR=_TRISB, size=1
;; ***	genCast  7253
;; >>> /home/sdcc-builder/build/sdcc-build/orig/sdcc/src/pic14/gen.c:7277:genCast
;;	1009
;;	1028  _TRISB   offset=0
	.line	12; "DRL.c"	GPIO_InitPortPin(GPIO_PORTB_CONTROL, GPIO_PIN_4, GPIO_OUT);
	BANKSEL	_TRISB
	MOVF	_TRISB,W
;; >>> /home/sdcc-builder/build/sdcc-build/orig/sdcc/src/pic14/gen.c:7278:genCast
;;	1109 rIdx = r0x1048 
	BANKSEL	r0x1007
	MOVWF	r0x1007
;;; /home/sdcc-builder/build/sdcc-build/orig/sdcc/src/pic14/gen.c:2316:resultRemat *{*
;;; /home/sdcc-builder/build/sdcc-build/orig/sdcc/src/pic14/gen.c:3919:genAnd *{*
;; ***	genAnd  3920
;;	694 register type nRegs=1
;; ***	aopForSym 315
;;	327 sym->rname = _TRISB, size = 1
;; 	line = 3955 result AOP_DIR=_TRISB, size=1, left AOP_REG=r0x1048, size=1, right AOP_LIT=0xef, size=1
;; >>> /home/sdcc-builder/build/sdcc-build/orig/sdcc/src/pic14/gen.c:4190:genAnd
	MOVLW	0xef
;; >>> /home/sdcc-builder/build/sdcc-build/orig/sdcc/src/pic14/gen.c:4191:genAnd
;;	1109 rIdx = r0x1048 
	ANDWF	r0x1007,W
;; >>> /home/sdcc-builder/build/sdcc-build/orig/sdcc/src/pic14/gen.c:4192:genAnd
;;	1009
;;	1028  _TRISB   offset=0
	BANKSEL	_TRISB
	MOVWF	_TRISB
;;; /home/sdcc-builder/build/sdcc-build/orig/sdcc/src/pic14/gen.c:2316:resultRemat *{*
;;; /home/sdcc-builder/build/sdcc-build/orig/sdcc/src/pic14/gen.c:2760:genLabel *{*
;; ***	genLabel  2763
;;; /home/sdcc-builder/build/sdcc-build/orig/sdcc/src/pic14/gen.c:2316:resultRemat *{*
;;; /home/sdcc-builder/build/sdcc-build/orig/sdcc/src/pic14/gen.c:2528:genEndFunction *{*
;; ***	genEndFunction  2530
	RETURN	
; exit point of _DRL_Init
;;; /home/sdcc-builder/build/sdcc-build/orig/sdcc/src/pic14/gen.c:7426:genpic14Code *{*


;	code size estimation:
;	   90+   27 =   117 instructions (  288 byte)

	end
